
/home/xiaoyi/exp12/exp12/build/hello.elf：     文件格式 elf32-littleriscv


Disassembly of section .text:

00000000 <_start>:
       0:	001ff137          	lui	sp,0x1ff
       4:	ffc10113          	addi	sp,sp,-4 # 1feffc <_end+0xecbfc>
       8:	3e9040ef          	jal	ra,4bf0 <_trm_init>

0000000c <cal_fib>:
       c:	00100793          	li	a5,1
      10:	06a7d063          	bge	a5,a0,70 <cal_fib+0x64>
      14:	ff010113          	addi	sp,sp,-16
      18:	ffe50793          	addi	a5,a0,-2
      1c:	01212023          	sw	s2,0(sp)
      20:	ffe7f793          	andi	a5,a5,-2
      24:	ffd50913          	addi	s2,a0,-3
      28:	00812423          	sw	s0,8(sp)
      2c:	00912223          	sw	s1,4(sp)
      30:	00112623          	sw	ra,12(sp)
      34:	fff50413          	addi	s0,a0,-1
      38:	40f90933          	sub	s2,s2,a5
      3c:	00000493          	li	s1,0
      40:	00040513          	mv	a0,s0
      44:	fc9ff0ef          	jal	ra,c <cal_fib>
      48:	ffe40413          	addi	s0,s0,-2
      4c:	00a484b3          	add	s1,s1,a0
      50:	ff2418e3          	bne	s0,s2,40 <cal_fib+0x34>
      54:	00c12083          	lw	ra,12(sp)
      58:	00812403          	lw	s0,8(sp)
      5c:	00012903          	lw	s2,0(sp)
      60:	00148513          	addi	a0,s1,1
      64:	00412483          	lw	s1,4(sp)
      68:	01010113          	addi	sp,sp,16
      6c:	00008067          	ret
      70:	00100513          	li	a0,1
      74:	00008067          	ret

00000078 <fib>:
      78:	fe010113          	addi	sp,sp,-32
      7c:	00100517          	auipc	a0,0x100
      80:	f8450513          	addi	a0,a0,-124 # 100000 <_etext+0xf9afc>
      84:	00112e23          	sw	ra,28(sp)
      88:	00812c23          	sw	s0,24(sp)
      8c:	00912a23          	sw	s1,20(sp)
      90:	01212823          	sw	s2,16(sp)
      94:	124060ef          	jal	ra,61b8 <puts>
      98:	00c10593          	addi	a1,sp,12
      9c:	00100517          	auipc	a0,0x100
      a0:	f7c50513          	addi	a0,a0,-132 # 100018 <_etext+0xf9b14>
      a4:	184060ef          	jal	ra,6228 <scanf>
      a8:	00c12403          	lw	s0,12(sp)
      ac:	00100793          	li	a5,1
      b0:	0487dc63          	bge	a5,s0,108 <fib+0x90>
      b4:	ffe40793          	addi	a5,s0,-2
      b8:	ffd40913          	addi	s2,s0,-3
      bc:	ffe7f793          	andi	a5,a5,-2
      c0:	fff40413          	addi	s0,s0,-1
      c4:	40f90933          	sub	s2,s2,a5
      c8:	00000493          	li	s1,0
      cc:	00040513          	mv	a0,s0
      d0:	f3dff0ef          	jal	ra,c <cal_fib>
      d4:	ffe40413          	addi	s0,s0,-2
      d8:	00a484b3          	add	s1,s1,a0
      dc:	ff2418e3          	bne	s0,s2,cc <fib+0x54>
      e0:	00148593          	addi	a1,s1,1
      e4:	00100517          	auipc	a0,0x100
      e8:	f3850513          	addi	a0,a0,-200 # 10001c <_etext+0xf9b18>
      ec:	3a9050ef          	jal	ra,5c94 <printf>
      f0:	01c12083          	lw	ra,28(sp)
      f4:	01812403          	lw	s0,24(sp)
      f8:	01412483          	lw	s1,20(sp)
      fc:	01012903          	lw	s2,16(sp)
     100:	02010113          	addi	sp,sp,32
     104:	00008067          	ret
     108:	00100593          	li	a1,1
     10c:	fd9ff06f          	j	e4 <fib+0x6c>

00000110 <sleep>:
     110:	ff010113          	addi	sp,sp,-16
     114:	00812423          	sw	s0,8(sp)
     118:	00050413          	mv	s0,a0
     11c:	00112623          	sw	ra,12(sp)
     120:	00912223          	sw	s1,4(sp)
     124:	604040ef          	jal	ra,4728 <get_second>
     128:	00805a63          	blez	s0,13c <sleep+0x2c>
     12c:	00050493          	mv	s1,a0
     130:	5f8040ef          	jal	ra,4728 <get_second>
     134:	409507b3          	sub	a5,a0,s1
     138:	fe87cce3          	blt	a5,s0,130 <sleep+0x20>
     13c:	00c12083          	lw	ra,12(sp)
     140:	00812403          	lw	s0,8(sp)
     144:	00412483          	lw	s1,4(sp)
     148:	01010113          	addi	sp,sp,16
     14c:	00008067          	ret

00000150 <light>:
     150:	fe010113          	addi	sp,sp,-32
     154:	00100517          	auipc	a0,0x100
     158:	ed450513          	addi	a0,a0,-300 # 100028 <_etext+0xf9b24>
     15c:	00112e23          	sw	ra,28(sp)
     160:	335050ef          	jal	ra,5c94 <printf>
     164:	00c10593          	addi	a1,sp,12
     168:	00100517          	auipc	a0,0x100
     16c:	eb050513          	addi	a0,a0,-336 # 100018 <_etext+0xf9b14>
     170:	0b8060ef          	jal	ra,6228 <scanf>
     174:	00c12703          	lw	a4,12(sp)
     178:	006007b7          	lui	a5,0x600
     17c:	00e787b3          	add	a5,a5,a4
     180:	00100713          	li	a4,1
     184:	00e78023          	sb	a4,0(a5) # 600000 <_end+0x4edc00>
     188:	01c12083          	lw	ra,28(sp)
     18c:	02010113          	addi	sp,sp,32
     190:	00008067          	ret

00000194 <time>:
     194:	ff010113          	addi	sp,sp,-16
     198:	00112623          	sw	ra,12(sp)
     19c:	58c040ef          	jal	ra,4728 <get_second>
     1a0:	00c12083          	lw	ra,12(sp)
     1a4:	00050593          	mv	a1,a0
     1a8:	00100517          	auipc	a0,0x100
     1ac:	eb450513          	addi	a0,a0,-332 # 10005c <_etext+0xf9b58>
     1b0:	01010113          	addi	sp,sp,16
     1b4:	2e10506f          	j	5c94 <printf>

000001b8 <fail>:
     1b8:	ff010113          	addi	sp,sp,-16
     1bc:	00100517          	auipc	a0,0x100
     1c0:	eac50513          	addi	a0,a0,-340 # 100068 <_etext+0xf9b64>
     1c4:	00112623          	sw	ra,12(sp)
     1c8:	7f1050ef          	jal	ra,61b8 <puts>
     1cc:	00c12083          	lw	ra,12(sp)
     1d0:	00a00513          	li	a0,10
     1d4:	01010113          	addi	sp,sp,16
     1d8:	0d50406f          	j	4aac <putch>

000001dc <setsreg>:
     1dc:	fc010113          	addi	sp,sp,-64
     1e0:	00100517          	auipc	a0,0x100
     1e4:	e9850513          	addi	a0,a0,-360 # 100078 <_etext+0xf9b74>
     1e8:	02112e23          	sw	ra,60(sp)
     1ec:	02812c23          	sw	s0,56(sp)
     1f0:	02912a23          	sw	s1,52(sp)
     1f4:	03212823          	sw	s2,48(sp)
     1f8:	03312623          	sw	s3,44(sp)
     1fc:	03412423          	sw	s4,40(sp)
     200:	03512223          	sw	s5,36(sp)
     204:	291050ef          	jal	ra,5c94 <printf>
     208:	303037b7          	lui	a5,0x30303
     20c:	03078793          	addi	a5,a5,48 # 30303030 <_end+0x301f0c30>
     210:	00f12623          	sw	a5,12(sp)
     214:	00f12823          	sw	a5,16(sp)
     218:	000037b7          	lui	a5,0x3
     21c:	03078793          	addi	a5,a5,48 # 3030 <coremark+0x50>
     220:	007004b7          	lui	s1,0x700
     224:	00c10513          	addi	a0,sp,12
     228:	00f12a23          	sw	a5,20(sp)
     22c:	00012c23          	sw	zero,24(sp)
     230:	00012e23          	sw	zero,28(sp)
     234:	00548413          	addi	s0,s1,5 # 700005 <_end+0x5edc05>
     238:	204060ef          	jal	ra,643c <gets>
     23c:	ff9009b7          	lui	s3,0xff900
     240:	00900913          	li	s2,9
     244:	00500a13          	li	s4,5
     248:	00100a97          	auipc	s5,0x100
     24c:	e5ca8a93          	addi	s5,s5,-420 # 1000a4 <_etext+0xf9ba0>
     250:	fff48493          	addi	s1,s1,-1
     254:	0100006f          	j	264 <setsreg+0x88>
     258:	00e40023          	sb	a4,0(s0)
     25c:	fff40413          	addi	s0,s0,-1
     260:	04940463          	beq	s0,s1,2a8 <setsreg+0xcc>
     264:	00c10713          	addi	a4,sp,12
     268:	013407b3          	add	a5,s0,s3
     26c:	00f707b3          	add	a5,a4,a5
     270:	0007c783          	lbu	a5,0(a5)
     274:	fd078713          	addi	a4,a5,-48
     278:	fbf78693          	addi	a3,a5,-65
     27c:	0ff77713          	andi	a4,a4,255
     280:	0ff6f693          	andi	a3,a3,255
     284:	fce97ae3          	bgeu	s2,a4,258 <setsreg+0x7c>
     288:	f9f78713          	addi	a4,a5,-97
     28c:	fc978613          	addi	a2,a5,-55
     290:	0ff77713          	andi	a4,a4,255
     294:	0ff67613          	andi	a2,a2,255
     298:	02da6a63          	bltu	s4,a3,2cc <setsreg+0xf0>
     29c:	00c40023          	sb	a2,0(s0)
     2a0:	fff40413          	addi	s0,s0,-1
     2a4:	fc9410e3          	bne	s0,s1,264 <setsreg+0x88>
     2a8:	03c12083          	lw	ra,60(sp)
     2ac:	03812403          	lw	s0,56(sp)
     2b0:	03412483          	lw	s1,52(sp)
     2b4:	03012903          	lw	s2,48(sp)
     2b8:	02c12983          	lw	s3,44(sp)
     2bc:	02812a03          	lw	s4,40(sp)
     2c0:	02412a83          	lw	s5,36(sp)
     2c4:	04010113          	addi	sp,sp,64
     2c8:	00008067          	ret
     2cc:	fa978793          	addi	a5,a5,-87
     2d0:	0ff7f793          	andi	a5,a5,255
     2d4:	00ea6663          	bltu	s4,a4,2e0 <setsreg+0x104>
     2d8:	00f40023          	sb	a5,0(s0)
     2dc:	f81ff06f          	j	25c <setsreg+0x80>
     2e0:	000a8513          	mv	a0,s5
     2e4:	1b1050ef          	jal	ra,5c94 <printf>
     2e8:	00a00513          	li	a0,10
     2ec:	7c0040ef          	jal	ra,4aac <putch>
     2f0:	f6dff06f          	j	25c <setsreg+0x80>

000002f4 <start_time>:
     2f4:	fe010113          	addi	sp,sp,-32
     2f8:	00810593          	addi	a1,sp,8
     2fc:	00600513          	li	a0,6
     300:	00112e23          	sw	ra,28(sp)
     304:	638040ef          	jal	ra,493c <ioe_read>
     308:	00812503          	lw	a0,8(sp)
     30c:	00c12583          	lw	a1,12(sp)
     310:	3e800613          	li	a2,1000
     314:	00000693          	li	a3,0
     318:	1e8050ef          	jal	ra,5500 <__udivdi3>
     31c:	01c12083          	lw	ra,28(sp)
     320:	00107797          	auipc	a5,0x107
     324:	a6a7a623          	sw	a0,-1428(a5) # 106d8c <start_time_val>
     328:	02010113          	addi	sp,sp,32
     32c:	00008067          	ret

00000330 <stop_time>:
     330:	fe010113          	addi	sp,sp,-32
     334:	00810593          	addi	a1,sp,8
     338:	00600513          	li	a0,6
     33c:	00112e23          	sw	ra,28(sp)
     340:	5fc040ef          	jal	ra,493c <ioe_read>
     344:	00812503          	lw	a0,8(sp)
     348:	00c12583          	lw	a1,12(sp)
     34c:	3e800613          	li	a2,1000
     350:	00000693          	li	a3,0
     354:	1ac050ef          	jal	ra,5500 <__udivdi3>
     358:	01c12083          	lw	ra,28(sp)
     35c:	00107797          	auipc	a5,0x107
     360:	a2a7aa23          	sw	a0,-1484(a5) # 106d90 <stop_time_val>
     364:	02010113          	addi	sp,sp,32
     368:	00008067          	ret

0000036c <get_time>:
     36c:	00107517          	auipc	a0,0x107
     370:	a2452503          	lw	a0,-1500(a0) # 106d90 <stop_time_val>
     374:	00107797          	auipc	a5,0x107
     378:	a187a783          	lw	a5,-1512(a5) # 106d8c <start_time_val>
     37c:	40f50533          	sub	a0,a0,a5
     380:	00008067          	ret

00000384 <time_in_secs>:
     384:	00008067          	ret

00000388 <portable_init>:
     388:	00100793          	li	a5,1
     38c:	00f50023          	sb	a5,0(a0)
     390:	00008067          	ret

00000394 <portable_fini>:
     394:	00050023          	sb	zero,0(a0)
     398:	00008067          	ret

0000039c <erf1kA3ufC>:
     39c:	ff010113          	addi	sp,sp,-16
     3a0:	00812423          	sw	s0,8(sp)
     3a4:	00107417          	auipc	s0,0x107
     3a8:	9c040413          	addi	s0,s0,-1600 # 106d64 <WxSdxkcUJN>
     3ac:	00112623          	sw	ra,12(sp)
     3b0:	00912223          	sw	s1,4(sp)
     3b4:	69c050ef          	jal	ra,5a50 <rand>
     3b8:	00042483          	lw	s1,0(s0)
     3bc:	00048593          	mv	a1,s1
     3c0:	334050ef          	jal	ra,56f4 <__umodsi3>
     3c4:	00105597          	auipc	a1,0x105
     3c8:	ac058593          	addi	a1,a1,-1344 # 104e84 <qBLBhlntx_>
     3cc:	00150513          	addi	a0,a0,1
     3d0:	00058893          	mv	a7,a1
     3d4:	00000813          	li	a6,0
     3d8:	02800613          	li	a2,40
     3dc:	00088793          	mv	a5,a7
     3e0:	00000713          	li	a4,0
     3e4:	00c0006f          	j	3f0 <erf1kA3ufC+0x54>
     3e8:	00170713          	addi	a4,a4,1
     3ec:	06c70263          	beq	a4,a2,450 <erf1kA3ufC+0xb4>
     3f0:	0007a683          	lw	a3,0(a5)
     3f4:	00478793          	addi	a5,a5,4
     3f8:	fe0698e3          	bnez	a3,3e8 <erf1kA3ufC+0x4c>
     3fc:	fff50513          	addi	a0,a0,-1
     400:	fe0514e3          	bnez	a0,3e8 <erf1kA3ufC+0x4c>
     404:	00281793          	slli	a5,a6,0x2
     408:	010787b3          	add	a5,a5,a6
     40c:	00379793          	slli	a5,a5,0x3
     410:	00e78733          	add	a4,a5,a4
     414:	00271713          	slli	a4,a4,0x2
     418:	00103797          	auipc	a5,0x103
     41c:	16c78793          	addi	a5,a5,364 # 103584 <JCyb92PO2X>
     420:	00e585b3          	add	a1,a1,a4
     424:	fff48493          	addi	s1,s1,-1
     428:	00e78733          	add	a4,a5,a4
     42c:	00100793          	li	a5,1
     430:	00f5a023          	sw	a5,0(a1)
     434:	00072023          	sw	zero,0(a4)
     438:	00942023          	sw	s1,0(s0)
     43c:	00c12083          	lw	ra,12(sp)
     440:	00812403          	lw	s0,8(sp)
     444:	00412483          	lw	s1,4(sp)
     448:	01010113          	addi	sp,sp,16
     44c:	00008067          	ret
     450:	00180813          	addi	a6,a6,1
     454:	0a088893          	addi	a7,a7,160
     458:	f8c812e3          	bne	a6,a2,3dc <erf1kA3ufC+0x40>
     45c:	fe1ff06f          	j	43c <erf1kA3ufC+0xa0>

00000460 <raB0cxTuRP>:
     460:	f9010113          	addi	sp,sp,-112
     464:	07212023          	sw	s2,96(sp)
     468:	05412c23          	sw	s4,88(sp)
     46c:	05512a23          	sw	s5,84(sp)
     470:	06112623          	sw	ra,108(sp)
     474:	06812423          	sw	s0,104(sp)
     478:	06912223          	sw	s1,100(sp)
     47c:	05312e23          	sw	s3,92(sp)
     480:	05612823          	sw	s6,80(sp)
     484:	05712623          	sw	s7,76(sp)
     488:	05812423          	sw	s8,72(sp)
     48c:	05912223          	sw	s9,68(sp)
     490:	05a12023          	sw	s10,64(sp)
     494:	03b12e23          	sw	s11,60(sp)
     498:	00050913          	mv	s2,a0
     49c:	00058a13          	mv	s4,a1
     4a0:	00c12423          	sw	a2,8(sp)
     4a4:	00068a93          	mv	s5,a3
     4a8:	2dc050ef          	jal	ra,5784 <strlen>
     4ac:	0e050663          	beqz	a0,598 <raB0cxTuRP+0x138>
     4b0:	00a907b3          	add	a5,s2,a0
     4b4:	00f12623          	sw	a5,12(sp)
     4b8:	01000bb7          	lui	s7,0x1000
     4bc:	005a9793          	slli	a5,s5,0x5
     4c0:	003a9493          	slli	s1,s5,0x3
     4c4:	00f12223          	sw	a5,4(sp)
     4c8:	fffb8b93          	addi	s7,s7,-1 # ffffff <_end+0xeedbff>
     4cc:	00094403          	lbu	s0,0(s2)
     4d0:	00100797          	auipc	a5,0x100
     4d4:	c7c78793          	addi	a5,a5,-900 # 10014c <vZkqLfCIMW>
     4d8:	00101997          	auipc	s3,0x101
     4dc:	0ac98993          	addi	s3,s3,172 # 101584 <h72Vdp9m1b>
     4e0:	00341413          	slli	s0,s0,0x3
     4e4:	00000b13          	li	s6,0
     4e8:	00878433          	add	s0,a5,s0
     4ec:	000a8593          	mv	a1,s5
     4f0:	000b0513          	mv	a0,s6
     4f4:	1b8050ef          	jal	ra,56ac <__hidden___udivsi3>
     4f8:	00a40533          	add	a0,s0,a0
     4fc:	00054c83          	lbu	s9,0(a0)
     500:	00098c13          	mv	s8,s3
     504:	00000d93          	li	s11,0
     508:	00100d13          	li	s10,1
     50c:	02c0006f          	j	538 <raB0cxTuRP+0xd8>
     510:	017c2023          	sw	s7,0(s8)
     514:	000d8513          	mv	a0,s11
     518:	000a8593          	mv	a1,s5
     51c:	1d8050ef          	jal	ra,56f4 <__umodsi3>
     520:	001d8d93          	addi	s11,s11,1
     524:	001d1593          	slli	a1,s10,0x1
     528:	00051463          	bnez	a0,530 <raB0cxTuRP+0xd0>
     52c:	0ff5fd13          	andi	s10,a1,255
     530:	004c0c13          	addi	s8,s8,4
     534:	009dfa63          	bgeu	s11,s1,548 <raB0cxTuRP+0xe8>
     538:	01acf5b3          	and	a1,s9,s10
     53c:	fc059ae3          	bnez	a1,510 <raB0cxTuRP+0xb0>
     540:	000c2023          	sw	zero,0(s8)
     544:	fd1ff06f          	j	514 <raB0cxTuRP+0xb4>
     548:	00412783          	lw	a5,4(sp)
     54c:	001b0b13          	addi	s6,s6,1
     550:	00f989b3          	add	s3,s3,a5
     554:	f89b6ce3          	bltu	s6,s1,4ec <raB0cxTuRP+0x8c>
     558:	00812783          	lw	a5,8(sp)
     55c:	01810593          	addi	a1,sp,24
     560:	00b00513          	li	a0,11
     564:	00f12e23          	sw	a5,28(sp)
     568:	00101797          	auipc	a5,0x101
     56c:	01c78793          	addi	a5,a5,28 # 101584 <h72Vdp9m1b>
     570:	01412c23          	sw	s4,24(sp)
     574:	02f12023          	sw	a5,32(sp)
     578:	02912223          	sw	s1,36(sp)
     57c:	02912423          	sw	s1,40(sp)
     580:	02010623          	sb	zero,44(sp)
     584:	3d4040ef          	jal	ra,4958 <ioe_write>
     588:	00c12783          	lw	a5,12(sp)
     58c:	00190913          	addi	s2,s2,1
     590:	009a0a33          	add	s4,s4,s1
     594:	f3279ce3          	bne	a5,s2,4cc <raB0cxTuRP+0x6c>
     598:	06c12083          	lw	ra,108(sp)
     59c:	06812403          	lw	s0,104(sp)
     5a0:	06412483          	lw	s1,100(sp)
     5a4:	06012903          	lw	s2,96(sp)
     5a8:	05c12983          	lw	s3,92(sp)
     5ac:	05812a03          	lw	s4,88(sp)
     5b0:	05412a83          	lw	s5,84(sp)
     5b4:	05012b03          	lw	s6,80(sp)
     5b8:	04c12b83          	lw	s7,76(sp)
     5bc:	04812c03          	lw	s8,72(sp)
     5c0:	04412c83          	lw	s9,68(sp)
     5c4:	04012d03          	lw	s10,64(sp)
     5c8:	03c12d83          	lw	s11,60(sp)
     5cc:	07010113          	addi	sp,sp,112
     5d0:	00008067          	ret

000005d4 <Vyi8XZjDoj>:
     5d4:	ff010113          	addi	sp,sp,-16
     5d8:	00812423          	sw	s0,8(sp)
     5dc:	00112623          	sw	ra,12(sp)
     5e0:	00050413          	mv	s0,a0
     5e4:	00054503          	lbu	a0,0(a0)
     5e8:	00050a63          	beqz	a0,5fc <Vyi8XZjDoj+0x28>
     5ec:	00140413          	addi	s0,s0,1
     5f0:	4bc040ef          	jal	ra,4aac <putch>
     5f4:	00044503          	lbu	a0,0(s0)
     5f8:	fe051ae3          	bnez	a0,5ec <Vyi8XZjDoj+0x18>
     5fc:	00c12083          	lw	ra,12(sp)
     600:	00812403          	lw	s0,8(sp)
     604:	00000513          	li	a0,0
     608:	01010113          	addi	sp,sp,16
     60c:	00008067          	ret

00000610 <ceO5NPYidU>:
     610:	fe010113          	addi	sp,sp,-32
     614:	00010593          	mv	a1,sp
     618:	00900513          	li	a0,9
     61c:	00112e23          	sw	ra,28(sp)
     620:	31c040ef          	jal	ra,493c <ioe_read>
     624:	00412783          	lw	a5,4(sp)
     628:	00010593          	mv	a1,sp
     62c:	00900513          	li	a0,9
     630:	00106717          	auipc	a4,0x106
     634:	76f72223          	sw	a5,1892(a4) # 106d94 <akI2wblQIp>
     638:	304040ef          	jal	ra,493c <ioe_read>
     63c:	00812783          	lw	a5,8(sp)
     640:	01c12083          	lw	ra,28(sp)
     644:	00106717          	auipc	a4,0x106
     648:	76f72223          	sw	a5,1892(a4) # 106da8 <oT4p6Ulx7J>
     64c:	02010113          	addi	sp,sp,32
     650:	00008067          	ret

00000654 <snake>:
     654:	f7010113          	addi	sp,sp,-144
     658:	00100513          	li	a0,1
     65c:	08112623          	sw	ra,140(sp)
     660:	08812423          	sw	s0,136(sp)
     664:	08912223          	sw	s1,132(sp)
     668:	09212023          	sw	s2,128(sp)
     66c:	07312e23          	sw	s3,124(sp)
     670:	07412c23          	sw	s4,120(sp)
     674:	07512a23          	sw	s5,116(sp)
     678:	07612823          	sw	s6,112(sp)
     67c:	07712623          	sw	s7,108(sp)
     680:	07812423          	sw	s8,104(sp)
     684:	07912223          	sw	s9,100(sp)
     688:	07a12023          	sw	s10,96(sp)
     68c:	05b12e23          	sw	s11,92(sp)
     690:	0c4040ef          	jal	ra,4754 <change_vga>
     694:	250040ef          	jal	ra,48e4 <ioe_init>
     698:	f79ff0ef          	jal	ra,610 <ceO5NPYidU>
     69c:	00104817          	auipc	a6,0x104
     6a0:	7e880813          	addi	a6,a6,2024 # 104e84 <qBLBhlntx_>
     6a4:	00000693          	li	a3,0
     6a8:	00200513          	li	a0,2
     6ac:	02700613          	li	a2,39
     6b0:	02800593          	li	a1,40
     6b4:	00080713          	mv	a4,a6
     6b8:	00000793          	li	a5,0
     6bc:	38068463          	beqz	a3,a44 <snake+0x3f0>
     6c0:	38c68263          	beq	a3,a2,a44 <snake+0x3f0>
     6c4:	38078063          	beqz	a5,a44 <snake+0x3f0>
     6c8:	36c78e63          	beq	a5,a2,a44 <snake+0x3f0>
     6cc:	00072023          	sw	zero,0(a4)
     6d0:	00178793          	addi	a5,a5,1
     6d4:	00470713          	addi	a4,a4,4
     6d8:	feb792e3          	bne	a5,a1,6bc <snake+0x68>
     6dc:	00168693          	addi	a3,a3,1
     6e0:	0a080813          	addi	a6,a6,160
     6e4:	fcf698e3          	bne	a3,a5,6b4 <snake+0x60>
     6e8:	01400793          	li	a5,20
     6ec:	00106617          	auipc	a2,0x106
     6f0:	6ac60613          	addi	a2,a2,1708 # 106d98 <UQRn26Bmz5>
     6f4:	00105717          	auipc	a4,0x105
     6f8:	79070713          	addi	a4,a4,1936 # 105e84 <qBLBhlntx_+0x1000>
     6fc:	00f62023          	sw	a5,0(a2)
     700:	00f62223          	sw	a5,4(a2)
     704:	00106597          	auipc	a1,0x106
     708:	69c58593          	addi	a1,a1,1692 # 106da0 <kZ6hP_qvSg>
     70c:	00400693          	li	a3,4
     710:	01300613          	li	a2,19
     714:	00f5a223          	sw	a5,4(a1)
     718:	00c5a023          	sw	a2,0(a1)
     71c:	ccd72823          	sw	a3,-816(a4)
     720:	ccd72623          	sw	a3,-820(a4)
     724:	00106797          	auipc	a5,0x106
     728:	6207ae23          	sw	zero,1596(a5) # 106d60 <W2yp9bnpy5>
     72c:	00106797          	auipc	a5,0x106
     730:	6207ac23          	sw	zero,1592(a5) # 106d64 <WxSdxkcUJN>
     734:	00104617          	auipc	a2,0x104
     738:	7f060613          	addi	a2,a2,2032 # 104f24 <qBLBhlntx_+0xa0>
     73c:	00106517          	auipc	a0,0x106
     740:	0e850513          	addi	a0,a0,232 # 106824 <x.1898+0xa0>
     744:	00000593          	li	a1,0
     748:	00000713          	li	a4,0
     74c:	f6060793          	addi	a5,a2,-160
     750:	0007a683          	lw	a3,0(a5)
     754:	00069663          	bnez	a3,760 <snake+0x10c>
     758:	00170713          	addi	a4,a4,1
     75c:	00100593          	li	a1,1
     760:	00478793          	addi	a5,a5,4
     764:	fef616e3          	bne	a2,a5,750 <snake+0xfc>
     768:	0a060613          	addi	a2,a2,160
     76c:	fec510e3          	bne	a0,a2,74c <snake+0xf8>
     770:	00058663          	beqz	a1,77c <snake+0x128>
     774:	00106797          	auipc	a5,0x106
     778:	5ee7a823          	sw	a4,1520(a5) # 106d64 <WxSdxkcUJN>
     77c:	c21ff0ef          	jal	ra,39c <erf1kA3ufC>
     780:	03810593          	addi	a1,sp,56
     784:	00600513          	li	a0,6
     788:	1b4040ef          	jal	ra,493c <ioe_read>
     78c:	03812503          	lw	a0,56(sp)
     790:	03c12583          	lw	a1,60(sp)
     794:	3e800613          	li	a2,1000
     798:	00000693          	li	a3,0
     79c:	565040ef          	jal	ra,5500 <__udivdi3>
     7a0:	00106797          	auipc	a5,0x106
     7a4:	60878793          	addi	a5,a5,1544 # 106da8 <oT4p6Ulx7J>
     7a8:	0007ad03          	lw	s10,0(a5)
     7ac:	00106797          	auipc	a5,0x106
     7b0:	5e878793          	addi	a5,a5,1512 # 106d94 <akI2wblQIp>
     7b4:	0007a903          	lw	s2,0(a5)
     7b8:	02800593          	li	a1,40
     7bc:	00050493          	mv	s1,a0
     7c0:	000d0513          	mv	a0,s10
     7c4:	6e9040ef          	jal	ra,56ac <__hidden___udivsi3>
     7c8:	00050b93          	mv	s7,a0
     7cc:	02800593          	li	a1,40
     7d0:	00090513          	mv	a0,s2
     7d4:	6d9040ef          	jal	ra,56ac <__hidden___udivsi3>
     7d8:	01757463          	bgeu	a0,s7,7e0 <snake+0x18c>
     7dc:	00050b93          	mv	s7,a0
     7e0:	0b796c63          	bltu	s2,s7,898 <snake+0x244>
     7e4:	000b8593          	mv	a1,s7
     7e8:	000b8513          	mv	a0,s7
     7ec:	76d040ef          	jal	ra,5758 <__mulsi3>
     7f0:	00101417          	auipc	s0,0x101
     7f4:	d9440413          	addi	s0,s0,-620 # 101584 <h72Vdp9m1b>
     7f8:	00251b13          	slli	s6,a0,0x2
     7fc:	00050a13          	mv	s4,a0
     800:	01640b33          	add	s6,s0,s6
     804:	00000993          	li	s3,0
     808:	00000a93          	li	s5,0
     80c:	077d6463          	bltu	s10,s7,874 <snake+0x220>
     810:	00000c13          	li	s8,0
     814:	00000913          	li	s2,0
     818:	00040793          	mv	a5,s0
     81c:	000a0863          	beqz	s4,82c <snake+0x1d8>
     820:	0007a023          	sw	zero,0(a5)
     824:	00478793          	addi	a5,a5,4
     828:	fefb1ce3          	bne	s6,a5,820 <snake+0x1cc>
     82c:	03810593          	addi	a1,sp,56
     830:	00b00513          	li	a0,11
     834:	03812e23          	sw	s8,60(sp)
     838:	03312c23          	sw	s3,56(sp)
     83c:	04812023          	sw	s0,64(sp)
     840:	05712223          	sw	s7,68(sp)
     844:	05712423          	sw	s7,72(sp)
     848:	04010623          	sb	zero,76(sp)
     84c:	10c040ef          	jal	ra,4958 <ioe_write>
     850:	00106797          	auipc	a5,0x106
     854:	55878793          	addi	a5,a5,1368 # 106da8 <oT4p6Ulx7J>
     858:	0007ad03          	lw	s10,0(a5)
     85c:	000b8593          	mv	a1,s7
     860:	00190913          	addi	s2,s2,1
     864:	000d0513          	mv	a0,s10
     868:	645040ef          	jal	ra,56ac <__hidden___udivsi3>
     86c:	017c0c33          	add	s8,s8,s7
     870:	faa964e3          	bltu	s2,a0,818 <snake+0x1c4>
     874:	00106797          	auipc	a5,0x106
     878:	52078793          	addi	a5,a5,1312 # 106d94 <akI2wblQIp>
     87c:	0007a903          	lw	s2,0(a5)
     880:	000b8593          	mv	a1,s7
     884:	001a8a93          	addi	s5,s5,1
     888:	00090513          	mv	a0,s2
     88c:	621040ef          	jal	ra,56ac <__hidden___udivsi3>
     890:	017989b3          	add	s3,s3,s7
     894:	f6aaece3          	bltu	s5,a0,80c <snake+0x1b8>
     898:	001d5613          	srli	a2,s10,0x1
     89c:	00195593          	srli	a1,s2,0x1
     8a0:	00400693          	li	a3,4
     8a4:	fc060613          	addi	a2,a2,-64
     8a8:	fa058593          	addi	a1,a1,-96
     8ac:	00100517          	auipc	a0,0x100
     8b0:	83850513          	addi	a0,a0,-1992 # 1000e4 <_etext+0xf9be0>
     8b4:	badff0ef          	jal	ra,460 <raB0cxTuRP>
     8b8:	00106797          	auipc	a5,0x106
     8bc:	4f078793          	addi	a5,a5,1264 # 106da8 <oT4p6Ulx7J>
     8c0:	0007a603          	lw	a2,0(a5)
     8c4:	00106797          	auipc	a5,0x106
     8c8:	4d078793          	addi	a5,a5,1232 # 106d94 <akI2wblQIp>
     8cc:	0007a583          	lw	a1,0(a5)
     8d0:	00165613          	srli	a2,a2,0x1
     8d4:	00400693          	li	a3,4
     8d8:	0015d593          	srli	a1,a1,0x1
     8dc:	fe060613          	addi	a2,a2,-32
     8e0:	fc058593          	addi	a1,a1,-64
     8e4:	00100517          	auipc	a0,0x100
     8e8:	80850513          	addi	a0,a0,-2040 # 1000ec <_etext+0xf9be8>
     8ec:	b75ff0ef          	jal	ra,460 <raB0cxTuRP>
     8f0:	00100793          	li	a5,1
     8f4:	03810593          	addi	a1,sp,56
     8f8:	00b00513          	li	a0,11
     8fc:	00001437          	lui	s0,0x1
     900:	02012c23          	sw	zero,56(sp)
     904:	02012e23          	sw	zero,60(sp)
     908:	04012023          	sw	zero,64(sp)
     90c:	04012223          	sw	zero,68(sp)
     910:	04012423          	sw	zero,72(sp)
     914:	04f10623          	sb	a5,76(sp)
     918:	bb740413          	addi	s0,s0,-1097 # bb7 <snake+0x563>
     91c:	03c040ef          	jal	ra,4958 <ioe_write>
     920:	03810593          	addi	a1,sp,56
     924:	00600513          	li	a0,6
     928:	014040ef          	jal	ra,493c <ioe_read>
     92c:	03812503          	lw	a0,56(sp)
     930:	03c12583          	lw	a1,60(sp)
     934:	3e800613          	li	a2,1000
     938:	00000693          	li	a3,0
     93c:	3c5040ef          	jal	ra,5500 <__udivdi3>
     940:	409507b3          	sub	a5,a0,s1
     944:	fcf45ee3          	bge	s0,a5,920 <snake+0x2cc>
     948:	00106797          	auipc	a5,0x106
     94c:	46078793          	addi	a5,a5,1120 # 106da8 <oT4p6Ulx7J>
     950:	0007a903          	lw	s2,0(a5)
     954:	00106797          	auipc	a5,0x106
     958:	44078793          	addi	a5,a5,1088 # 106d94 <akI2wblQIp>
     95c:	0007a403          	lw	s0,0(a5)
     960:	02800593          	li	a1,40
     964:	00090513          	mv	a0,s2
     968:	545040ef          	jal	ra,56ac <__hidden___udivsi3>
     96c:	00050b93          	mv	s7,a0
     970:	02800593          	li	a1,40
     974:	00040513          	mv	a0,s0
     978:	535040ef          	jal	ra,56ac <__hidden___udivsi3>
     97c:	01757463          	bgeu	a0,s7,984 <snake+0x330>
     980:	00050b93          	mv	s7,a0
     984:	0d746463          	bltu	s0,s7,a4c <snake+0x3f8>
     988:	000b8593          	mv	a1,s7
     98c:	000b8513          	mv	a0,s7
     990:	5c9040ef          	jal	ra,5758 <__mulsi3>
     994:	00101417          	auipc	s0,0x101
     998:	bf040413          	addi	s0,s0,-1040 # 101584 <h72Vdp9m1b>
     99c:	00251b13          	slli	s6,a0,0x2
     9a0:	00050a13          	mv	s4,a0
     9a4:	01640b33          	add	s6,s0,s6
     9a8:	00000993          	li	s3,0
     9ac:	00000a93          	li	s5,0
     9b0:	07796263          	bltu	s2,s7,a14 <snake+0x3c0>
     9b4:	00000c13          	li	s8,0
     9b8:	00000913          	li	s2,0
     9bc:	00040793          	mv	a5,s0
     9c0:	000a0863          	beqz	s4,9d0 <snake+0x37c>
     9c4:	0007a023          	sw	zero,0(a5)
     9c8:	00478793          	addi	a5,a5,4
     9cc:	fefb1ce3          	bne	s6,a5,9c4 <snake+0x370>
     9d0:	03810593          	addi	a1,sp,56
     9d4:	00b00513          	li	a0,11
     9d8:	03812e23          	sw	s8,60(sp)
     9dc:	03312c23          	sw	s3,56(sp)
     9e0:	04812023          	sw	s0,64(sp)
     9e4:	05712223          	sw	s7,68(sp)
     9e8:	05712423          	sw	s7,72(sp)
     9ec:	04010623          	sb	zero,76(sp)
     9f0:	769030ef          	jal	ra,4958 <ioe_write>
     9f4:	00106797          	auipc	a5,0x106
     9f8:	3b478793          	addi	a5,a5,948 # 106da8 <oT4p6Ulx7J>
     9fc:	0007a503          	lw	a0,0(a5)
     a00:	000b8593          	mv	a1,s7
     a04:	00190913          	addi	s2,s2,1
     a08:	4a5040ef          	jal	ra,56ac <__hidden___udivsi3>
     a0c:	017c0c33          	add	s8,s8,s7
     a10:	faa966e3          	bltu	s2,a0,9bc <snake+0x368>
     a14:	00106797          	auipc	a5,0x106
     a18:	38078793          	addi	a5,a5,896 # 106d94 <akI2wblQIp>
     a1c:	0007a503          	lw	a0,0(a5)
     a20:	000b8593          	mv	a1,s7
     a24:	001a8a93          	addi	s5,s5,1
     a28:	485040ef          	jal	ra,56ac <__hidden___udivsi3>
     a2c:	017989b3          	add	s3,s3,s7
     a30:	00aafe63          	bgeu	s5,a0,a4c <snake+0x3f8>
     a34:	00106797          	auipc	a5,0x106
     a38:	37478793          	addi	a5,a5,884 # 106da8 <oT4p6Ulx7J>
     a3c:	0007a903          	lw	s2,0(a5)
     a40:	f71ff06f          	j	9b0 <snake+0x35c>
     a44:	00a72023          	sw	a0,0(a4)
     a48:	c89ff06f          	j	6d0 <snake+0x7c>
     a4c:	ffff87b7          	lui	a5,0xffff8
     a50:	fff78793          	addi	a5,a5,-1 # ffff7fff <_end+0xffee5bff>
     a54:	ffffebb7          	lui	s7,0xffffe
     a58:	00f12e23          	sw	a5,28(sp)
     a5c:	700b8793          	addi	a5,s7,1792 # ffffe700 <_end+0xffeec300>
     a60:	000ff417          	auipc	s0,0xff
     a64:	6a840413          	addi	s0,s0,1704 # 100108 <_etext+0xf9c04>
     a68:	00f12423          	sw	a5,8(sp)
     a6c:	0c700913          	li	s2,199
     a70:	03810593          	addi	a1,sp,56
     a74:	00600513          	li	a0,6
     a78:	6c5030ef          	jal	ra,493c <ioe_read>
     a7c:	03812503          	lw	a0,56(sp)
     a80:	03c12583          	lw	a1,60(sp)
     a84:	3e800613          	li	a2,1000
     a88:	00000693          	li	a3,0
     a8c:	275040ef          	jal	ra,5500 <__udivdi3>
     a90:	409507b3          	sub	a5,a0,s1
     a94:	fcf95ee3          	bge	s2,a5,a70 <snake+0x41c>
     a98:	00a12823          	sw	a0,16(sp)
     a9c:	03810593          	addi	a1,sp,56
     aa0:	00800513          	li	a0,8
     aa4:	699030ef          	jal	ra,493c <ioe_read>
     aa8:	03814703          	lbu	a4,56(sp)
     aac:	03c12783          	lw	a5,60(sp)
     ab0:	00f71713          	slli	a4,a4,0xf
     ab4:	00f76733          	or	a4,a4,a5
     ab8:	01c12783          	lw	a5,28(sp)
     abc:	00f777b3          	and	a5,a4,a5
     ac0:	00078663          	beqz	a5,acc <snake+0x478>
     ac4:	01071693          	slli	a3,a4,0x10
     ac8:	3a06c263          	bltz	a3,e6c <snake+0x818>
     acc:	00106797          	auipc	a5,0x106
     ad0:	2cc78793          	addi	a5,a5,716 # 106d98 <UQRn26Bmz5>
     ad4:	0047a683          	lw	a3,4(a5)
     ad8:	0007a883          	lw	a7,0(a5)
     adc:	00104617          	auipc	a2,0x104
     ae0:	3a860613          	addi	a2,a2,936 # 104e84 <qBLBhlntx_>
     ae4:	00269713          	slli	a4,a3,0x2
     ae8:	00d707b3          	add	a5,a4,a3
     aec:	00379793          	slli	a5,a5,0x3
     af0:	011787b3          	add	a5,a5,a7
     af4:	00279793          	slli	a5,a5,0x2
     af8:	00f607b3          	add	a5,a2,a5
     afc:	0007a583          	lw	a1,0(a5)
     b00:	ffd58793          	addi	a5,a1,-3
     b04:	fff00513          	li	a0,-1
     b08:	00100613          	li	a2,1
     b0c:	05010813          	addi	a6,sp,80
     b10:	00279793          	slli	a5,a5,0x2
     b14:	00f807b3          	add	a5,a6,a5
     b18:	02a12c23          	sw	a0,56(sp)
     b1c:	02012e23          	sw	zero,60(sp)
     b20:	04c12023          	sw	a2,64(sp)
     b24:	04012223          	sw	zero,68(sp)
     b28:	fe87a483          	lw	s1,-24(a5)
     b2c:	02a12a23          	sw	a0,52(sp)
     b30:	02012423          	sw	zero,40(sp)
     b34:	02c12623          	sw	a2,44(sp)
     b38:	02012823          	sw	zero,48(sp)
     b3c:	fd87a903          	lw	s2,-40(a5)
     b40:	00d48533          	add	a0,s1,a3
     b44:	00251793          	slli	a5,a0,0x2
     b48:	00a787b3          	add	a5,a5,a0
     b4c:	01190833          	add	a6,s2,a7
     b50:	00379793          	slli	a5,a5,0x3
     b54:	010787b3          	add	a5,a5,a6
     b58:	00104317          	auipc	t1,0x104
     b5c:	32c30313          	addi	t1,t1,812 # 104e84 <qBLBhlntx_>
     b60:	00279793          	slli	a5,a5,0x2
     b64:	00f30e33          	add	t3,t1,a5
     b68:	000e2303          	lw	t1,0(t3)
     b6c:	00612623          	sw	t1,12(sp)
     b70:	62666063          	bltu	a2,t1,1190 <snake+0xb3c>
     b74:	00c12303          	lw	t1,12(sp)
     b78:	64c30463          	beq	t1,a2,11c0 <snake+0xb6c>
     b7c:	00106297          	auipc	t0,0x106
     b80:	22428293          	addi	t0,t0,548 # 106da0 <kZ6hP_qvSg>
     b84:	0042a303          	lw	t1,4(t0)
     b88:	0002af03          	lw	t5,0(t0)
     b8c:	00d70733          	add	a4,a4,a3
     b90:	00231693          	slli	a3,t1,0x2
     b94:	006686b3          	add	a3,a3,t1
     b98:	00369693          	slli	a3,a3,0x3
     b9c:	01e686b3          	add	a3,a3,t5
     ba0:	00269693          	slli	a3,a3,0x2
     ba4:	00104617          	auipc	a2,0x104
     ba8:	2e060613          	addi	a2,a2,736 # 104e84 <qBLBhlntx_>
     bac:	00d60eb3          	add	t4,a2,a3
     bb0:	000ea603          	lw	a2,0(t4)
     bb4:	00371713          	slli	a4,a4,0x3
     bb8:	01170733          	add	a4,a4,a7
     bbc:	ffd60613          	addi	a2,a2,-3
     bc0:	05010893          	addi	a7,sp,80
     bc4:	00261613          	slli	a2,a2,0x2
     bc8:	00c88633          	add	a2,a7,a2
     bcc:	fe862883          	lw	a7,-24(a2)
     bd0:	fd862f83          	lw	t6,-40(a2)
     bd4:	00271713          	slli	a4,a4,0x2
     bd8:	011308b3          	add	a7,t1,a7
     bdc:	00289613          	slli	a2,a7,0x2
     be0:	01ff0333          	add	t1,t5,t6
     be4:	01160633          	add	a2,a2,a7
     be8:	00103f17          	auipc	t5,0x103
     bec:	99cf0f13          	addi	t5,t5,-1636 # 103584 <JCyb92PO2X>
     bf0:	00ef0733          	add	a4,t5,a4
     bf4:	00361613          	slli	a2,a2,0x3
     bf8:	00072023          	sw	zero,0(a4)
     bfc:	00ff0733          	add	a4,t5,a5
     c00:	006607b3          	add	a5,a2,t1
     c04:	00072023          	sw	zero,0(a4)
     c08:	00df06b3          	add	a3,t5,a3
     c0c:	00279793          	slli	a5,a5,0x2
     c10:	00ff07b3          	add	a5,t5,a5
     c14:	0006a023          	sw	zero,0(a3)
     c18:	0007a023          	sw	zero,0(a5)
     c1c:	00100793          	li	a5,1
     c20:	00106717          	auipc	a4,0x106
     c24:	17870713          	addi	a4,a4,376 # 106d98 <UQRn26Bmz5>
     c28:	00be2023          	sw	a1,0(t3)
     c2c:	00f12623          	sw	a5,12(sp)
     c30:	00106797          	auipc	a5,0x106
     c34:	13078793          	addi	a5,a5,304 # 106d60 <W2yp9bnpy5>
     c38:	01072023          	sw	a6,0(a4)
     c3c:	00a72223          	sw	a0,4(a4)
     c40:	000ea023          	sw	zero,0(t4)
     c44:	0062a023          	sw	t1,0(t0)
     c48:	0112a223          	sw	a7,4(t0)
     c4c:	00f12c23          	sw	a5,24(sp)
     c50:	00106797          	auipc	a5,0x106
     c54:	15878793          	addi	a5,a5,344 # 106da8 <oT4p6Ulx7J>
     c58:	0007a503          	lw	a0,0(a5)
     c5c:	02800593          	li	a1,40
     c60:	24d040ef          	jal	ra,56ac <__hidden___udivsi3>
     c64:	00106797          	auipc	a5,0x106
     c68:	13078793          	addi	a5,a5,304 # 106d94 <akI2wblQIp>
     c6c:	00050d13          	mv	s10,a0
     c70:	0007a503          	lw	a0,0(a5)
     c74:	02800593          	li	a1,40
     c78:	235040ef          	jal	ra,56ac <__hidden___udivsi3>
     c7c:	01a57463          	bgeu	a0,s10,c84 <snake+0x630>
     c80:	00050d13          	mv	s10,a0
     c84:	000d0593          	mv	a1,s10
     c88:	000d0513          	mv	a0,s10
     c8c:	2cd040ef          	jal	ra,5758 <__mulsi3>
     c90:	00101c17          	auipc	s8,0x101
     c94:	8f4c0c13          	addi	s8,s8,-1804 # 101584 <h72Vdp9m1b>
     c98:	00251913          	slli	s2,a0,0x2
     c9c:	00050993          	mv	s3,a0
     ca0:	00104b17          	auipc	s6,0x104
     ca4:	1e4b0b13          	addi	s6,s6,484 # 104e84 <qBLBhlntx_>
     ca8:	01812a23          	sw	s8,20(sp)
     cac:	012c0933          	add	s2,s8,s2
     cb0:	00104497          	auipc	s1,0x104
     cb4:	1d448493          	addi	s1,s1,468 # 104e84 <qBLBhlntx_>
     cb8:	00000b93          	li	s7,0
     cbc:	00100a13          	li	s4,1
     cc0:	00812783          	lw	a5,8(sp)
     cc4:	00048d93          	mv	s11,s1
     cc8:	00000c93          	li	s9,0
     ccc:	00fb0ab3          	add	s5,s6,a5
     cd0:	0140006f          	j	ce4 <snake+0x690>
     cd4:	0a0a8a93          	addi	s5,s5,160
     cd8:	01ac8cb3          	add	s9,s9,s10
     cdc:	0a0d8d93          	addi	s11,s11,160
     ce0:	075b0863          	beq	s6,s5,d50 <snake+0x6fc>
     ce4:	000aa783          	lw	a5,0(s5)
     ce8:	fe0796e3          	bnez	a5,cd4 <snake+0x680>
     cec:	014aa023          	sw	s4,0(s5)
     cf0:	02098663          	beqz	s3,d1c <snake+0x6c8>
     cf4:	000da783          	lw	a5,0(s11)
     cf8:	00100697          	auipc	a3,0x100
     cfc:	26468693          	addi	a3,a3,612 # 100f5c <ukvKuleR4X>
     d00:	000c0713          	mv	a4,s8
     d04:	00279793          	slli	a5,a5,0x2
     d08:	00f687b3          	add	a5,a3,a5
     d0c:	0007a783          	lw	a5,0(a5)
     d10:	00f72023          	sw	a5,0(a4)
     d14:	00470713          	addi	a4,a4,4
     d18:	fee91ce3          	bne	s2,a4,d10 <snake+0x6bc>
     d1c:	03810593          	addi	a1,sp,56
     d20:	00b00513          	li	a0,11
     d24:	0a0a8a93          	addi	s5,s5,160
     d28:	03912e23          	sw	s9,60(sp)
     d2c:	03712c23          	sw	s7,56(sp)
     d30:	05812023          	sw	s8,64(sp)
     d34:	05a12223          	sw	s10,68(sp)
     d38:	05a12423          	sw	s10,72(sp)
     d3c:	04010623          	sb	zero,76(sp)
     d40:	01ac8cb3          	add	s9,s9,s10
     d44:	415030ef          	jal	ra,4958 <ioe_write>
     d48:	0a0d8d93          	addi	s11,s11,160
     d4c:	f95b1ce3          	bne	s6,s5,ce4 <snake+0x690>
     d50:	004b0b13          	addi	s6,s6,4
     d54:	00104797          	auipc	a5,0x104
     d58:	1d078793          	addi	a5,a5,464 # 104f24 <qBLBhlntx_+0xa0>
     d5c:	01ab8bb3          	add	s7,s7,s10
     d60:	00448493          	addi	s1,s1,4
     d64:	f5679ee3          	bne	a5,s6,cc0 <snake+0x66c>
     d68:	02098063          	beqz	s3,d88 <snake+0x734>
     d6c:	00100797          	auipc	a5,0x100
     d70:	1f078793          	addi	a5,a5,496 # 100f5c <ukvKuleR4X>
     d74:	01c7a783          	lw	a5,28(a5)
     d78:	01412703          	lw	a4,20(sp)
     d7c:	00f72023          	sw	a5,0(a4)
     d80:	00470713          	addi	a4,a4,4
     d84:	fee91ce3          	bne	s2,a4,d7c <snake+0x728>
     d88:	00106917          	auipc	s2,0x106
     d8c:	01090913          	addi	s2,s2,16 # 106d98 <UQRn26Bmz5>
     d90:	00492583          	lw	a1,4(s2)
     d94:	000d0513          	mv	a0,s10
     d98:	1c1040ef          	jal	ra,5758 <__mulsi3>
     d9c:	00050493          	mv	s1,a0
     da0:	00092503          	lw	a0,0(s2)
     da4:	000d0593          	mv	a1,s10
     da8:	1b1040ef          	jal	ra,5758 <__mulsi3>
     dac:	00050793          	mv	a5,a0
     db0:	03810593          	addi	a1,sp,56
     db4:	00b00513          	li	a0,11
     db8:	02f12c23          	sw	a5,56(sp)
     dbc:	02912e23          	sw	s1,60(sp)
     dc0:	05812023          	sw	s8,64(sp)
     dc4:	05a12223          	sw	s10,68(sp)
     dc8:	05a12423          	sw	s10,72(sp)
     dcc:	04010623          	sb	zero,76(sp)
     dd0:	389030ef          	jal	ra,4958 <ioe_write>
     dd4:	01812783          	lw	a5,24(sp)
     dd8:	002d1493          	slli	s1,s10,0x2
     ddc:	01a484b3          	add	s1,s1,s10
     de0:	0007a603          	lw	a2,0(a5)
     de4:	00249493          	slli	s1,s1,0x2
     de8:	000ff597          	auipc	a1,0xff
     dec:	30c58593          	addi	a1,a1,780 # 1000f4 <_etext+0xf9bf0>
     df0:	00100517          	auipc	a0,0x100
     df4:	71450513          	addi	a0,a0,1812 # 101504 <h7WHgbkyVu>
     df8:	01a484b3          	add	s1,s1,s10
     dfc:	104050ef          	jal	ra,5f00 <sprintf>
     e00:	00149493          	slli	s1,s1,0x1
     e04:	00200693          	li	a3,2
     e08:	02000613          	li	a2,32
     e0c:	00048593          	mv	a1,s1
     e10:	00100517          	auipc	a0,0x100
     e14:	16c50513          	addi	a0,a0,364 # 100f7c <cZ5d65ts5U>
     e18:	e48ff0ef          	jal	ra,460 <raB0cxTuRP>
     e1c:	00048593          	mv	a1,s1
     e20:	00100517          	auipc	a0,0x100
     e24:	6e450513          	addi	a0,a0,1764 # 101504 <h7WHgbkyVu>
     e28:	00200693          	li	a3,2
     e2c:	03000613          	li	a2,48
     e30:	e30ff0ef          	jal	ra,460 <raB0cxTuRP>
     e34:	00100793          	li	a5,1
     e38:	03810593          	addi	a1,sp,56
     e3c:	00b00513          	li	a0,11
     e40:	04f10623          	sb	a5,76(sp)
     e44:	02012c23          	sw	zero,56(sp)
     e48:	02012e23          	sw	zero,60(sp)
     e4c:	04012023          	sw	zero,64(sp)
     e50:	04012223          	sw	zero,68(sp)
     e54:	04012423          	sw	zero,72(sp)
     e58:	301030ef          	jal	ra,4958 <ioe_write>
     e5c:	00c12783          	lw	a5,12(sp)
     e60:	02078663          	beqz	a5,e8c <snake+0x838>
     e64:	01012483          	lw	s1,16(sp)
     e68:	c05ff06f          	j	a6c <snake+0x418>
     e6c:	fe378793          	addi	a5,a5,-29
     e70:	01000713          	li	a4,16
     e74:	c4f76ce3          	bltu	a4,a5,acc <snake+0x478>
     e78:	00279793          	slli	a5,a5,0x2
     e7c:	008787b3          	add	a5,a5,s0
     e80:	0007a783          	lw	a5,0(a5)
     e84:	008787b3          	add	a5,a5,s0
     e88:	00078067          	jr	a5
     e8c:	00106797          	auipc	a5,0x106
     e90:	f1c78793          	addi	a5,a5,-228 # 106da8 <oT4p6Ulx7J>
     e94:	0007ac03          	lw	s8,0(a5)
     e98:	00106797          	auipc	a5,0x106
     e9c:	efc78793          	addi	a5,a5,-260 # 106d94 <akI2wblQIp>
     ea0:	0007a983          	lw	s3,0(a5)
     ea4:	02800593          	li	a1,40
     ea8:	000c0513          	mv	a0,s8
     eac:	001040ef          	jal	ra,56ac <__hidden___udivsi3>
     eb0:	00050913          	mv	s2,a0
     eb4:	02800593          	li	a1,40
     eb8:	00098513          	mv	a0,s3
     ebc:	7f0040ef          	jal	ra,56ac <__hidden___udivsi3>
     ec0:	01257463          	bgeu	a0,s2,ec8 <snake+0x874>
     ec4:	00050913          	mv	s2,a0
     ec8:	0b29ec63          	bltu	s3,s2,f80 <snake+0x92c>
     ecc:	00090593          	mv	a1,s2
     ed0:	00090513          	mv	a0,s2
     ed4:	085040ef          	jal	ra,5758 <__mulsi3>
     ed8:	00100417          	auipc	s0,0x100
     edc:	6ac40413          	addi	s0,s0,1708 # 101584 <h72Vdp9m1b>
     ee0:	00251493          	slli	s1,a0,0x2
     ee4:	00050b13          	mv	s6,a0
     ee8:	009404b3          	add	s1,s0,s1
     eec:	00000a93          	li	s5,0
     ef0:	00000b93          	li	s7,0
     ef4:	072c6463          	bltu	s8,s2,f5c <snake+0x908>
     ef8:	00000a13          	li	s4,0
     efc:	00000993          	li	s3,0
     f00:	00040793          	mv	a5,s0
     f04:	000b0863          	beqz	s6,f14 <snake+0x8c0>
     f08:	0007a023          	sw	zero,0(a5)
     f0c:	00478793          	addi	a5,a5,4
     f10:	fef49ce3          	bne	s1,a5,f08 <snake+0x8b4>
     f14:	03810593          	addi	a1,sp,56
     f18:	00b00513          	li	a0,11
     f1c:	03412e23          	sw	s4,60(sp)
     f20:	03512c23          	sw	s5,56(sp)
     f24:	04812023          	sw	s0,64(sp)
     f28:	05212223          	sw	s2,68(sp)
     f2c:	05212423          	sw	s2,72(sp)
     f30:	04010623          	sb	zero,76(sp)
     f34:	225030ef          	jal	ra,4958 <ioe_write>
     f38:	00106797          	auipc	a5,0x106
     f3c:	e7078793          	addi	a5,a5,-400 # 106da8 <oT4p6Ulx7J>
     f40:	0007ac03          	lw	s8,0(a5)
     f44:	00090593          	mv	a1,s2
     f48:	00198993          	addi	s3,s3,1
     f4c:	000c0513          	mv	a0,s8
     f50:	75c040ef          	jal	ra,56ac <__hidden___udivsi3>
     f54:	012a0a33          	add	s4,s4,s2
     f58:	faa9e4e3          	bltu	s3,a0,f00 <snake+0x8ac>
     f5c:	00106797          	auipc	a5,0x106
     f60:	e3878793          	addi	a5,a5,-456 # 106d94 <akI2wblQIp>
     f64:	0007a983          	lw	s3,0(a5)
     f68:	00090593          	mv	a1,s2
     f6c:	001b8b93          	addi	s7,s7,1
     f70:	00098513          	mv	a0,s3
     f74:	738040ef          	jal	ra,56ac <__hidden___udivsi3>
     f78:	012a8ab3          	add	s5,s5,s2
     f7c:	f6abece3          	bltu	s7,a0,ef4 <snake+0x8a0>
     f80:	001c5613          	srli	a2,s8,0x1
     f84:	0019d593          	srli	a1,s3,0x1
     f88:	00400693          	li	a3,4
     f8c:	fe060613          	addi	a2,a2,-32
     f90:	f8058593          	addi	a1,a1,-128
     f94:	000ff517          	auipc	a0,0xff
     f98:	16850513          	addi	a0,a0,360 # 1000fc <_etext+0xf9bf8>
     f9c:	cc4ff0ef          	jal	ra,460 <raB0cxTuRP>
     fa0:	00100793          	li	a5,1
     fa4:	03810593          	addi	a1,sp,56
     fa8:	00b00513          	li	a0,11
     fac:	02012c23          	sw	zero,56(sp)
     fb0:	02012e23          	sw	zero,60(sp)
     fb4:	04012023          	sw	zero,64(sp)
     fb8:	04012223          	sw	zero,68(sp)
     fbc:	04012423          	sw	zero,72(sp)
     fc0:	04f10623          	sb	a5,76(sp)
     fc4:	195030ef          	jal	ra,4958 <ioe_write>
     fc8:	01012483          	lw	s1,16(sp)
     fcc:	00001437          	lui	s0,0x1
     fd0:	bb740413          	addi	s0,s0,-1097 # bb7 <snake+0x563>
     fd4:	03810593          	addi	a1,sp,56
     fd8:	00600513          	li	a0,6
     fdc:	161030ef          	jal	ra,493c <ioe_read>
     fe0:	03812503          	lw	a0,56(sp)
     fe4:	03c12583          	lw	a1,60(sp)
     fe8:	3e800613          	li	a2,1000
     fec:	00000693          	li	a3,0
     ff0:	510040ef          	jal	ra,5500 <__udivdi3>
     ff4:	409507b3          	sub	a5,a0,s1
     ff8:	fcf45ee3          	bge	s0,a5,fd4 <snake+0x980>
     ffc:	00000513          	li	a0,0
    1000:	754030ef          	jal	ra,4754 <change_vga>
    1004:	08c12083          	lw	ra,140(sp)
    1008:	08812403          	lw	s0,136(sp)
    100c:	08412483          	lw	s1,132(sp)
    1010:	08012903          	lw	s2,128(sp)
    1014:	07c12983          	lw	s3,124(sp)
    1018:	07812a03          	lw	s4,120(sp)
    101c:	07412a83          	lw	s5,116(sp)
    1020:	07012b03          	lw	s6,112(sp)
    1024:	06c12b83          	lw	s7,108(sp)
    1028:	06812c03          	lw	s8,104(sp)
    102c:	06412c83          	lw	s9,100(sp)
    1030:	06012d03          	lw	s10,96(sp)
    1034:	05c12d83          	lw	s11,92(sp)
    1038:	09010113          	addi	sp,sp,144
    103c:	00008067          	ret
    1040:	00106797          	auipc	a5,0x106
    1044:	d5878793          	addi	a5,a5,-680 # 106d98 <UQRn26Bmz5>
    1048:	0047a683          	lw	a3,4(a5)
    104c:	0007a883          	lw	a7,0(a5)
    1050:	00104797          	auipc	a5,0x104
    1054:	e3478793          	addi	a5,a5,-460 # 104e84 <qBLBhlntx_>
    1058:	00269713          	slli	a4,a3,0x2
    105c:	00d70633          	add	a2,a4,a3
    1060:	00361613          	slli	a2,a2,0x3
    1064:	01160633          	add	a2,a2,a7
    1068:	00261613          	slli	a2,a2,0x2
    106c:	00c78633          	add	a2,a5,a2
    1070:	00062583          	lw	a1,0(a2)
    1074:	00600513          	li	a0,6
    1078:	00300793          	li	a5,3
    107c:	a8a584e3          	beq	a1,a0,b04 <snake+0x4b0>
    1080:	00400793          	li	a5,4
    1084:	00f62023          	sw	a5,0(a2)
    1088:	00400593          	li	a1,4
    108c:	00100793          	li	a5,1
    1090:	a75ff06f          	j	b04 <snake+0x4b0>
    1094:	00106797          	auipc	a5,0x106
    1098:	d0478793          	addi	a5,a5,-764 # 106d98 <UQRn26Bmz5>
    109c:	0047a683          	lw	a3,4(a5)
    10a0:	0007a883          	lw	a7,0(a5)
    10a4:	00104797          	auipc	a5,0x104
    10a8:	de078793          	addi	a5,a5,-544 # 104e84 <qBLBhlntx_>
    10ac:	00269713          	slli	a4,a3,0x2
    10b0:	00d70633          	add	a2,a4,a3
    10b4:	00361613          	slli	a2,a2,0x3
    10b8:	01160633          	add	a2,a2,a7
    10bc:	00261613          	slli	a2,a2,0x2
    10c0:	00c78633          	add	a2,a5,a2
    10c4:	00062583          	lw	a1,0(a2)
    10c8:	00400513          	li	a0,4
    10cc:	00100793          	li	a5,1
    10d0:	a2a58ae3          	beq	a1,a0,b04 <snake+0x4b0>
    10d4:	00600793          	li	a5,6
    10d8:	00f62023          	sw	a5,0(a2)
    10dc:	00600593          	li	a1,6
    10e0:	00300793          	li	a5,3
    10e4:	a21ff06f          	j	b04 <snake+0x4b0>
    10e8:	00106797          	auipc	a5,0x106
    10ec:	cb078793          	addi	a5,a5,-848 # 106d98 <UQRn26Bmz5>
    10f0:	0047a683          	lw	a3,4(a5)
    10f4:	0007a883          	lw	a7,0(a5)
    10f8:	00104797          	auipc	a5,0x104
    10fc:	d8c78793          	addi	a5,a5,-628 # 104e84 <qBLBhlntx_>
    1100:	00269713          	slli	a4,a3,0x2
    1104:	00d70633          	add	a2,a4,a3
    1108:	00361613          	slli	a2,a2,0x3
    110c:	01160633          	add	a2,a2,a7
    1110:	00261613          	slli	a2,a2,0x2
    1114:	00c78633          	add	a2,a5,a2
    1118:	00062583          	lw	a1,0(a2)
    111c:	00500513          	li	a0,5
    1120:	00200793          	li	a5,2
    1124:	9ea580e3          	beq	a1,a0,b04 <snake+0x4b0>
    1128:	00300793          	li	a5,3
    112c:	00f62023          	sw	a5,0(a2)
    1130:	00300593          	li	a1,3
    1134:	00000793          	li	a5,0
    1138:	9cdff06f          	j	b04 <snake+0x4b0>
    113c:	00106797          	auipc	a5,0x106
    1140:	c5c78793          	addi	a5,a5,-932 # 106d98 <UQRn26Bmz5>
    1144:	0047a683          	lw	a3,4(a5)
    1148:	0007a883          	lw	a7,0(a5)
    114c:	00104797          	auipc	a5,0x104
    1150:	d3878793          	addi	a5,a5,-712 # 104e84 <qBLBhlntx_>
    1154:	00269713          	slli	a4,a3,0x2
    1158:	00d70633          	add	a2,a4,a3
    115c:	00361613          	slli	a2,a2,0x3
    1160:	01160633          	add	a2,a2,a7
    1164:	00261613          	slli	a2,a2,0x2
    1168:	00c78633          	add	a2,a5,a2
    116c:	00062583          	lw	a1,0(a2)
    1170:	00300513          	li	a0,3
    1174:	00000793          	li	a5,0
    1178:	98a586e3          	beq	a1,a0,b04 <snake+0x4b0>
    117c:	00500793          	li	a5,5
    1180:	00f62023          	sw	a5,0(a2)
    1184:	00500593          	li	a1,5
    1188:	00200793          	li	a5,2
    118c:	979ff06f          	j	b04 <snake+0x4b0>
    1190:	000ff497          	auipc	s1,0xff
    1194:	f4448493          	addi	s1,s1,-188 # 1000d4 <_etext+0xf9bd0>
    1198:	04700513          	li	a0,71
    119c:	00148493          	addi	s1,s1,1
    11a0:	10d030ef          	jal	ra,4aac <putch>
    11a4:	0004c503          	lbu	a0,0(s1)
    11a8:	fe051ae3          	bnez	a0,119c <snake+0xb48>
    11ac:	00106797          	auipc	a5,0x106
    11b0:	bb478793          	addi	a5,a5,-1100 # 106d60 <W2yp9bnpy5>
    11b4:	00012623          	sw	zero,12(sp)
    11b8:	00f12c23          	sw	a5,24(sp)
    11bc:	a95ff06f          	j	c50 <snake+0x5fc>
    11c0:	9dcff0ef          	jal	ra,39c <erf1kA3ufC>
    11c4:	00106517          	auipc	a0,0x106
    11c8:	bd450513          	addi	a0,a0,-1068 # 106d98 <UQRn26Bmz5>
    11cc:	00452783          	lw	a5,4(a0)
    11d0:	00052603          	lw	a2,0(a0)
    11d4:	00106817          	auipc	a6,0x106
    11d8:	b8c80813          	addi	a6,a6,-1140 # 106d60 <W2yp9bnpy5>
    11dc:	00279713          	slli	a4,a5,0x2
    11e0:	00f70733          	add	a4,a4,a5
    11e4:	00f484b3          	add	s1,s1,a5
    11e8:	00371713          	slli	a4,a4,0x3
    11ec:	00c70733          	add	a4,a4,a2
    11f0:	00249793          	slli	a5,s1,0x2
    11f4:	00271713          	slli	a4,a4,0x2
    11f8:	00104897          	auipc	a7,0x104
    11fc:	c8c88893          	addi	a7,a7,-884 # 104e84 <qBLBhlntx_>
    1200:	009787b3          	add	a5,a5,s1
    1204:	00c90933          	add	s2,s2,a2
    1208:	00082683          	lw	a3,0(a6)
    120c:	00e88633          	add	a2,a7,a4
    1210:	00379793          	slli	a5,a5,0x3
    1214:	00062583          	lw	a1,0(a2)
    1218:	00102317          	auipc	t1,0x102
    121c:	36c30313          	addi	t1,t1,876 # 103584 <JCyb92PO2X>
    1220:	012787b3          	add	a5,a5,s2
    1224:	00279793          	slli	a5,a5,0x2
    1228:	00e30733          	add	a4,t1,a4
    122c:	00f88633          	add	a2,a7,a5
    1230:	00072023          	sw	zero,0(a4)
    1234:	00f307b3          	add	a5,t1,a5
    1238:	00168713          	addi	a4,a3,1
    123c:	01012c23          	sw	a6,24(sp)
    1240:	00b62023          	sw	a1,0(a2)
    1244:	01252023          	sw	s2,0(a0)
    1248:	00952223          	sw	s1,4(a0)
    124c:	0007a023          	sw	zero,0(a5)
    1250:	00e82023          	sw	a4,0(a6)
    1254:	9fdff06f          	j	c50 <snake+0x5fc>

00001258 <min>:
    1258:	00050793          	mv	a5,a0
    125c:	00058513          	mv	a0,a1
    1260:	00b7d463          	bge	a5,a1,1268 <min+0x10>
    1264:	00078513          	mv	a0,a5
    1268:	00008067          	ret

0000126c <randint>:
    126c:	ff010113          	addi	sp,sp,-16
    1270:	00112623          	sw	ra,12(sp)
    1274:	00812423          	sw	s0,8(sp)
    1278:	00912223          	sw	s1,4(sp)
    127c:	00058413          	mv	s0,a1
    1280:	00050493          	mv	s1,a0
    1284:	7cc040ef          	jal	ra,5a50 <rand>
    1288:	409405b3          	sub	a1,s0,s1
    128c:	00151513          	slli	a0,a0,0x1
    1290:	00158593          	addi	a1,a1,1
    1294:	00155513          	srli	a0,a0,0x1
    1298:	490040ef          	jal	ra,5728 <__modsi3>
    129c:	00c12083          	lw	ra,12(sp)
    12a0:	00812403          	lw	s0,8(sp)
    12a4:	00950533          	add	a0,a0,s1
    12a8:	00412483          	lw	s1,4(sp)
    12ac:	01010113          	addi	sp,sp,16
    12b0:	00008067          	ret

000012b4 <new_char>:
    12b4:	ff010113          	addi	sp,sp,-16
    12b8:	00912223          	sw	s1,4(sp)
    12bc:	00110497          	auipc	s1,0x110
    12c0:	8fc48493          	addi	s1,s1,-1796 # 110bb8 <chars>
    12c4:	00812423          	sw	s0,8(sp)
    12c8:	00112623          	sw	ra,12(sp)
    12cc:	01212023          	sw	s2,0(sp)
    12d0:	00048793          	mv	a5,s1
    12d4:	00000413          	li	s0,0
    12d8:	08000693          	li	a3,128
    12dc:	00c0006f          	j	12e8 <new_char+0x34>
    12e0:	00140413          	addi	s0,s0,1
    12e4:	08d40463          	beq	s0,a3,136c <new_char+0xb8>
    12e8:	0007c703          	lbu	a4,0(a5)
    12ec:	01478793          	addi	a5,a5,20
    12f0:	fe0718e3          	bnez	a4,12e0 <new_char+0x2c>
    12f4:	75c040ef          	jal	ra,5a50 <rand>
    12f8:	80000937          	lui	s2,0x80000
    12fc:	00241793          	slli	a5,s0,0x2
    1300:	fff94913          	not	s2,s2
    1304:	00878433          	add	s0,a5,s0
    1308:	01a00593          	li	a1,26
    130c:	01257533          	and	a0,a0,s2
    1310:	418040ef          	jal	ra,5728 <__modsi3>
    1314:	00241413          	slli	s0,s0,0x2
    1318:	00848433          	add	s0,s1,s0
    131c:	04150513          	addi	a0,a0,65
    1320:	00a40023          	sb	a0,0(s0)
    1324:	00110497          	auipc	s1,0x110
    1328:	2984a483          	lw	s1,664(s1) # 1115bc <screen_w>
    132c:	724040ef          	jal	ra,5a50 <rand>
    1330:	ff948593          	addi	a1,s1,-7
    1334:	01257533          	and	a0,a0,s2
    1338:	3f0040ef          	jal	ra,5728 <__modsi3>
    133c:	00a42223          	sw	a0,4(s0)
    1340:	00042423          	sw	zero,8(s0)
    1344:	00106497          	auipc	s1,0x106
    1348:	c684a483          	lw	s1,-920(s1) # 106fac <screen_h>
    134c:	704040ef          	jal	ra,5a50 <rand>
    1350:	00f57593          	andi	a1,a0,15
    1354:	ff148493          	addi	s1,s1,-15
    1358:	02d58593          	addi	a1,a1,45
    135c:	00048513          	mv	a0,s1
    1360:	344040ef          	jal	ra,56a4 <__divsi3>
    1364:	00a42623          	sw	a0,12(s0)
    1368:	00042823          	sw	zero,16(s0)
    136c:	00c12083          	lw	ra,12(sp)
    1370:	00812403          	lw	s0,8(sp)
    1374:	00412483          	lw	s1,4(sp)
    1378:	00012903          	lw	s2,0(sp)
    137c:	01010113          	addi	sp,sp,16
    1380:	00008067          	ret

00001384 <game_logic_update>:
    1384:	ff010113          	addi	sp,sp,-16
    1388:	00600593          	li	a1,6
    138c:	00112623          	sw	ra,12(sp)
    1390:	398040ef          	jal	ra,5728 <__modsi3>
    1394:	0a050a63          	beqz	a0,1448 <game_logic_update+0xc4>
    1398:	00110e17          	auipc	t3,0x110
    139c:	818e0e13          	addi	t3,t3,-2024 # 110bb0 <miss>
    13a0:	00106597          	auipc	a1,0x106
    13a4:	c0c5a583          	lw	a1,-1012(a1) # 106fac <screen_h>
    13a8:	000e2503          	lw	a0,0(t3)
    13ac:	ff058313          	addi	t1,a1,-16
    13b0:	00110797          	auipc	a5,0x110
    13b4:	80878793          	addi	a5,a5,-2040 # 110bb8 <chars>
    13b8:	00110617          	auipc	a2,0x110
    13bc:	20060613          	addi	a2,a2,512 # 1115b8 <hit>
    13c0:	00000813          	li	a6,0
    13c4:	01e00893          	li	a7,30
    13c8:	0180006f          	j	13e0 <game_logic_update+0x5c>
    13cc:	00d7a823          	sw	a3,16(a5)
    13d0:	00069463          	bnez	a3,13d8 <game_logic_update+0x54>
    13d4:	00078023          	sb	zero,0(a5)
    13d8:	01478793          	addi	a5,a5,20
    13dc:	04c78863          	beq	a5,a2,142c <game_logic_update+0xa8>
    13e0:	0007c703          	lbu	a4,0(a5)
    13e4:	fe070ae3          	beqz	a4,13d8 <game_logic_update+0x54>
    13e8:	0107a703          	lw	a4,16(a5)
    13ec:	fff70693          	addi	a3,a4,-1
    13f0:	fce04ee3          	bgtz	a4,13cc <game_logic_update+0x48>
    13f4:	0087a703          	lw	a4,8(a5)
    13f8:	00c7a683          	lw	a3,12(a5)
    13fc:	00d70733          	add	a4,a4,a3
    1400:	00e7a423          	sw	a4,8(a5)
    1404:	01070693          	addi	a3,a4,16
    1408:	02074c63          	bltz	a4,1440 <game_logic_update+0xbc>
    140c:	fcb6c6e3          	blt	a3,a1,13d8 <game_logic_update+0x54>
    1410:	0007a623          	sw	zero,12(a5)
    1414:	0067a423          	sw	t1,8(a5)
    1418:	0117a823          	sw	a7,16(a5)
    141c:	01478793          	addi	a5,a5,20
    1420:	00150513          	addi	a0,a0,1
    1424:	00100813          	li	a6,1
    1428:	fac79ce3          	bne	a5,a2,13e0 <game_logic_update+0x5c>
    142c:	00080463          	beqz	a6,1434 <game_logic_update+0xb0>
    1430:	00ae2023          	sw	a0,0(t3)
    1434:	00c12083          	lw	ra,12(sp)
    1438:	01010113          	addi	sp,sp,16
    143c:	00008067          	ret
    1440:	00078023          	sb	zero,0(a5)
    1444:	fc9ff06f          	j	140c <game_logic_update+0x88>
    1448:	e6dff0ef          	jal	ra,12b4 <new_char>
    144c:	f4dff06f          	j	1398 <game_logic_update+0x14>

00001450 <render>:
    1450:	fb010113          	addi	sp,sp,-80
    1454:	03512a23          	sw	s5,52(sp)
    1458:	00106a97          	auipc	s5,0x106
    145c:	910a8a93          	addi	s5,s5,-1776 # 106d68 <n.1900>
    1460:	000aa783          	lw	a5,0(s5)
    1464:	04112623          	sw	ra,76(sp)
    1468:	04812423          	sw	s0,72(sp)
    146c:	04912223          	sw	s1,68(sp)
    1470:	05212023          	sw	s2,64(sp)
    1474:	03312e23          	sw	s3,60(sp)
    1478:	03412c23          	sw	s4,56(sp)
    147c:	03612823          	sw	s6,48(sp)
    1480:	03712623          	sw	s7,44(sp)
    1484:	16f05c63          	blez	a5,15fc <render+0x1ac>
    1488:	00105917          	auipc	s2,0x105
    148c:	2fc90913          	addi	s2,s2,764 # 106784 <x.1898>
    1490:	00105497          	auipc	s1,0x105
    1494:	4f448493          	addi	s1,s1,1268 # 106984 <y.1899>
    1498:	00000413          	li	s0,0
    149c:	00106b97          	auipc	s7,0x106
    14a0:	910b8b93          	addi	s7,s7,-1776 # 106dac <blank>
    14a4:	00810b13          	addi	s6,sp,8
    14a8:	00800a13          	li	s4,8
    14ac:	01000993          	li	s3,16
    14b0:	0004a783          	lw	a5,0(s1)
    14b4:	00092703          	lw	a4,0(s2)
    14b8:	000b0593          	mv	a1,s6
    14bc:	00b00513          	li	a0,11
    14c0:	00f12623          	sw	a5,12(sp)
    14c4:	00e12423          	sw	a4,8(sp)
    14c8:	01712823          	sw	s7,16(sp)
    14cc:	01412a23          	sw	s4,20(sp)
    14d0:	01312c23          	sw	s3,24(sp)
    14d4:	00010e23          	sb	zero,28(sp)
    14d8:	480030ef          	jal	ra,4958 <ioe_write>
    14dc:	000aa783          	lw	a5,0(s5)
    14e0:	00140413          	addi	s0,s0,1
    14e4:	00490913          	addi	s2,s2,4
    14e8:	00448493          	addi	s1,s1,4
    14ec:	fcf442e3          	blt	s0,a5,14b0 <render+0x60>
    14f0:	00106797          	auipc	a5,0x106
    14f4:	8607ac23          	sw	zero,-1928(a5) # 106d68 <n.1900>
    14f8:	0010f417          	auipc	s0,0x10f
    14fc:	6c040413          	addi	s0,s0,1728 # 110bb8 <chars>
    1500:	00110b97          	auipc	s7,0x110
    1504:	0b8b8b93          	addi	s7,s7,184 # 1115b8 <hit>
    1508:	00105a17          	auipc	s4,0x105
    150c:	27ca0a13          	addi	s4,s4,636 # 106784 <x.1898>
    1510:	00106997          	auipc	s3,0x106
    1514:	aa098993          	addi	s3,s3,-1376 # 106fb0 <texture>
    1518:	00800913          	li	s2,8
    151c:	01000493          	li	s1,16
    1520:	0340006f          	j	1554 <render+0x104>
    1524:	00e787b3          	add	a5,a5,a4
    1528:	00979793          	slli	a5,a5,0x9
    152c:	013787b3          	add	a5,a5,s3
    1530:	01012423          	sw	a6,8(sp)
    1534:	00c12623          	sw	a2,12(sp)
    1538:	00f12823          	sw	a5,16(sp)
    153c:	01212a23          	sw	s2,20(sp)
    1540:	00912c23          	sw	s1,24(sp)
    1544:	00010e23          	sb	zero,28(sp)
    1548:	410030ef          	jal	ra,4958 <ioe_write>
    154c:	01440413          	addi	s0,s0,20
    1550:	05740c63          	beq	s0,s7,15a8 <render+0x158>
    1554:	00044703          	lbu	a4,0(s0)
    1558:	000b0593          	mv	a1,s6
    155c:	00b00513          	li	a0,11
    1560:	fbf70793          	addi	a5,a4,-65
    1564:	fe0704e3          	beqz	a4,154c <render+0xfc>
    1568:	000aa703          	lw	a4,0(s5)
    156c:	00442803          	lw	a6,4(s0)
    1570:	00842603          	lw	a2,8(s0)
    1574:	00271693          	slli	a3,a4,0x2
    1578:	00c42883          	lw	a7,12(s0)
    157c:	00da06b3          	add	a3,s4,a3
    1580:	00170713          	addi	a4,a4,1
    1584:	00eaa023          	sw	a4,0(s5)
    1588:	0106a023          	sw	a6,0(a3)
    158c:	20c6a023          	sw	a2,512(a3)
    1590:	00000713          	li	a4,0
    1594:	f91048e3          	bgtz	a7,1524 <render+0xd4>
    1598:	03400713          	li	a4,52
    159c:	f80894e3          	bnez	a7,1524 <render+0xd4>
    15a0:	01a00713          	li	a4,26
    15a4:	f81ff06f          	j	1524 <render+0xd4>
    15a8:	000b0593          	mv	a1,s6
    15ac:	00100793          	li	a5,1
    15b0:	00b00513          	li	a0,11
    15b4:	00012423          	sw	zero,8(sp)
    15b8:	00012623          	sw	zero,12(sp)
    15bc:	00012823          	sw	zero,16(sp)
    15c0:	00012a23          	sw	zero,20(sp)
    15c4:	00012c23          	sw	zero,24(sp)
    15c8:	00f10e23          	sb	a5,28(sp)
    15cc:	38c030ef          	jal	ra,4958 <ioe_write>
    15d0:	04c12083          	lw	ra,76(sp)
    15d4:	04812403          	lw	s0,72(sp)
    15d8:	04412483          	lw	s1,68(sp)
    15dc:	04012903          	lw	s2,64(sp)
    15e0:	03c12983          	lw	s3,60(sp)
    15e4:	03812a03          	lw	s4,56(sp)
    15e8:	03412a83          	lw	s5,52(sp)
    15ec:	03012b03          	lw	s6,48(sp)
    15f0:	02c12b83          	lw	s7,44(sp)
    15f4:	05010113          	addi	sp,sp,80
    15f8:	00008067          	ret
    15fc:	00810b13          	addi	s6,sp,8
    1600:	ef1ff06f          	j	14f0 <render+0xa0>

00001604 <check_hit>:
    1604:	0010f817          	auipc	a6,0x10f
    1608:	5b480813          	addi	a6,a6,1460 # 110bb8 <chars>
    160c:	00080793          	mv	a5,a6
    1610:	00000713          	li	a4,0
    1614:	fff00593          	li	a1,-1
    1618:	fff00313          	li	t1,-1
    161c:	08000613          	li	a2,128
    1620:	0100006f          	j	1630 <check_hit+0x2c>
    1624:	00170713          	addi	a4,a4,1
    1628:	01478793          	addi	a5,a5,20
    162c:	04c70263          	beq	a4,a2,1670 <check_hit+0x6c>
    1630:	0007c683          	lbu	a3,0(a5)
    1634:	fea698e3          	bne	a3,a0,1624 <check_hit+0x20>
    1638:	00c7a683          	lw	a3,12(a5)
    163c:	fed054e3          	blez	a3,1624 <check_hit+0x20>
    1640:	00259693          	slli	a3,a1,0x2
    1644:	00b686b3          	add	a3,a3,a1
    1648:	00269693          	slli	a3,a3,0x2
    164c:	00d806b3          	add	a3,a6,a3
    1650:	00658863          	beq	a1,t1,1660 <check_hit+0x5c>
    1654:	0087a883          	lw	a7,8(a5)
    1658:	0086a683          	lw	a3,8(a3)
    165c:	fd16d4e3          	bge	a3,a7,1624 <check_hit+0x20>
    1660:	00070593          	mv	a1,a4
    1664:	00170713          	addi	a4,a4,1
    1668:	01478793          	addi	a5,a5,20
    166c:	fcc712e3          	bne	a4,a2,1630 <check_hit+0x2c>
    1670:	fff00793          	li	a5,-1
    1674:	06f58063          	beq	a1,a5,16d4 <check_hit+0xd0>
    1678:	00110717          	auipc	a4,0x110
    167c:	f4070713          	addi	a4,a4,-192 # 1115b8 <hit>
    1680:	00072783          	lw	a5,0(a4)
    1684:	ff010113          	addi	sp,sp,-16
    1688:	00812423          	sw	s0,8(sp)
    168c:	00112623          	sw	ra,12(sp)
    1690:	00259413          	slli	s0,a1,0x2
    1694:	00178793          	addi	a5,a5,1
    1698:	00b40433          	add	s0,s0,a1
    169c:	00f72023          	sw	a5,0(a4)
    16a0:	00f00513          	li	a0,15
    16a4:	00106797          	auipc	a5,0x106
    16a8:	9087a783          	lw	a5,-1784(a5) # 106fac <screen_h>
    16ac:	00241413          	slli	s0,s0,0x2
    16b0:	01e00593          	li	a1,30
    16b4:	40f50533          	sub	a0,a0,a5
    16b8:	00880433          	add	s0,a6,s0
    16bc:	7e9030ef          	jal	ra,56a4 <__divsi3>
    16c0:	00c12083          	lw	ra,12(sp)
    16c4:	00a42623          	sw	a0,12(s0)
    16c8:	00812403          	lw	s0,8(sp)
    16cc:	01010113          	addi	sp,sp,16
    16d0:	00008067          	ret
    16d4:	0010f717          	auipc	a4,0x10f
    16d8:	4e070713          	addi	a4,a4,1248 # 110bb4 <wrong>
    16dc:	00072783          	lw	a5,0(a4)
    16e0:	00178793          	addi	a5,a5,1
    16e4:	00f72023          	sw	a5,0(a4)
    16e8:	00008067          	ret

000016ec <video_init>:
    16ec:	fc010113          	addi	sp,sp,-64
    16f0:	00810593          	addi	a1,sp,8
    16f4:	00900513          	li	a0,9
    16f8:	02112e23          	sw	ra,60(sp)
    16fc:	03212823          	sw	s2,48(sp)
    1700:	03312623          	sw	s3,44(sp)
    1704:	03412423          	sw	s4,40(sp)
    1708:	02812c23          	sw	s0,56(sp)
    170c:	02912a23          	sw	s1,52(sp)
    1710:	03512223          	sw	s5,36(sp)
    1714:	03612023          	sw	s6,32(sp)
    1718:	224030ef          	jal	ra,493c <ioe_read>
    171c:	00c12783          	lw	a5,12(sp)
    1720:	00110997          	auipc	s3,0x110
    1724:	e9c98993          	addi	s3,s3,-356 # 1115bc <screen_w>
    1728:	00810593          	addi	a1,sp,8
    172c:	00900513          	li	a0,9
    1730:	00f9a023          	sw	a5,0(s3)
    1734:	208030ef          	jal	ra,493c <ioe_read>
    1738:	01012783          	lw	a5,16(sp)
    173c:	00106917          	auipc	s2,0x106
    1740:	87090913          	addi	s2,s2,-1936 # 106fac <screen_h>
    1744:	00105a17          	auipc	s4,0x105
    1748:	668a0a13          	addi	s4,s4,1640 # 106dac <blank>
    174c:	002a16b7          	lui	a3,0x2a1
    1750:	00f92023          	sw	a5,0(s2)
    1754:	000a0713          	mv	a4,s4
    1758:	00106617          	auipc	a2,0x106
    175c:	85460613          	addi	a2,a2,-1964 # 106fac <screen_h>
    1760:	a2968693          	addi	a3,a3,-1495 # 2a0a29 <_end+0x18e629>
    1764:	00d72023          	sw	a3,0(a4)
    1768:	00470713          	addi	a4,a4,4
    176c:	fee61ce3          	bne	a2,a4,1764 <video_init+0x78>
    1770:	0009a703          	lw	a4,0(s3)
    1774:	00000493          	li	s1,0
    1778:	00800b13          	li	s6,8
    177c:	01000a93          	li	s5,16
    1780:	06e05463          	blez	a4,17e8 <video_init+0xfc>
    1784:	00000413          	li	s0,0
    1788:	04f05863          	blez	a5,17d8 <video_init+0xec>
    178c:	00812623          	sw	s0,12(sp)
    1790:	40970733          	sub	a4,a4,s1
    1794:	00912423          	sw	s1,8(sp)
    1798:	01412823          	sw	s4,16(sp)
    179c:	408787b3          	sub	a5,a5,s0
    17a0:	00810593          	addi	a1,sp,8
    17a4:	00b00513          	li	a0,11
    17a8:	01040413          	addi	s0,s0,16
    17ac:	00eb5463          	bge	s6,a4,17b4 <video_init+0xc8>
    17b0:	00800713          	li	a4,8
    17b4:	00e12a23          	sw	a4,20(sp)
    17b8:	00fad463          	bge	s5,a5,17c0 <video_init+0xd4>
    17bc:	01000793          	li	a5,16
    17c0:	00f12c23          	sw	a5,24(sp)
    17c4:	00010e23          	sb	zero,28(sp)
    17c8:	190030ef          	jal	ra,4958 <ioe_write>
    17cc:	00092783          	lw	a5,0(s2)
    17d0:	0009a703          	lw	a4,0(s3)
    17d4:	faf44ce3          	blt	s0,a5,178c <video_init+0xa0>
    17d8:	00848493          	addi	s1,s1,8
    17dc:	00e4d663          	bge	s1,a4,17e8 <video_init+0xfc>
    17e0:	00092783          	lw	a5,0(s2)
    17e4:	fa1ff06f          	j	1784 <video_init+0x98>
    17e8:	002a1537          	lui	a0,0x2a1
    17ec:	000075b7          	lui	a1,0x7
    17f0:	00eeff37          	lui	t5,0xeef
    17f4:	0000deb7          	lui	t4,0xd
    17f8:	00ff0e37          	lui	t3,0xff0
    17fc:	00003337          	lui	t1,0x3
    1800:	000ff417          	auipc	s0,0xff
    1804:	7fc40413          	addi	s0,s0,2044 # 100ffc <font>
    1808:	00105497          	auipc	s1,0x105
    180c:	7a848493          	addi	s1,s1,1960 # 106fb0 <texture>
    1810:	00100917          	auipc	s2,0x100
    1814:	98c90913          	addi	s2,s2,-1652 # 10119c <lut>
    1818:	a2950513          	addi	a0,a0,-1495 # 2a0a29 <_end+0x18e629>
    181c:	80058593          	addi	a1,a1,-2048 # 6800 <_etext+0x2fc>
    1820:	eeef0f13          	addi	t5,t5,-274 # eeeeee <_end+0xddcaee>
    1824:	c33e8e93          	addi	t4,t4,-973 # cc33 <_etext+0x672f>
    1828:	033e0e13          	addi	t3,t3,51 # ff0033 <_end+0xeddc33>
    182c:	40030313          	addi	t1,t1,1024 # 3400 <coremark+0x420>
    1830:	00048393          	mv	t2,s1
    1834:	00040293          	mv	t0,s0
    1838:	00000f93          	li	t6,0
    183c:	fff00893          	li	a7,-1
    1840:	08000993          	li	s3,128
    1844:	0002c803          	lbu	a6,0(t0)
    1848:	00038793          	mv	a5,t2
    184c:	00700713          	li	a4,7
    1850:	0240006f          	j	1874 <video_init+0x188>
    1854:	01e7a023          	sw	t5,0(a5)
    1858:	01d62023          	sw	t4,0(a2)
    185c:	000e0693          	mv	a3,t3
    1860:	00678633          	add	a2,a5,t1
    1864:	00d62023          	sw	a3,0(a2)
    1868:	fff70713          	addi	a4,a4,-1
    186c:	00478793          	addi	a5,a5,4
    1870:	03170c63          	beq	a4,a7,18a8 <video_init+0x1bc>
    1874:	40e856b3          	sra	a3,a6,a4
    1878:	0016f693          	andi	a3,a3,1
    187c:	00b78633          	add	a2,a5,a1
    1880:	fc069ae3          	bnez	a3,1854 <video_init+0x168>
    1884:	00a7a023          	sw	a0,0(a5)
    1888:	00b786b3          	add	a3,a5,a1
    188c:	00a6a023          	sw	a0,0(a3)
    1890:	00678633          	add	a2,a5,t1
    1894:	00050693          	mv	a3,a0
    1898:	00d62023          	sw	a3,0(a2)
    189c:	fff70713          	addi	a4,a4,-1
    18a0:	00478793          	addi	a5,a5,4
    18a4:	fd1718e3          	bne	a4,a7,1874 <video_init+0x188>
    18a8:	008f8f93          	addi	t6,t6,8
    18ac:	00128293          	addi	t0,t0,1
    18b0:	02038393          	addi	t2,t2,32
    18b4:	f93f98e3          	bne	t6,s3,1844 <video_init+0x158>
    18b8:	01040413          	addi	s0,s0,16
    18bc:	20048493          	addi	s1,s1,512
    18c0:	f68918e3          	bne	s2,s0,1830 <video_init+0x144>
    18c4:	03c12083          	lw	ra,60(sp)
    18c8:	03812403          	lw	s0,56(sp)
    18cc:	03412483          	lw	s1,52(sp)
    18d0:	03012903          	lw	s2,48(sp)
    18d4:	02c12983          	lw	s3,44(sp)
    18d8:	02812a03          	lw	s4,40(sp)
    18dc:	02412a83          	lw	s5,36(sp)
    18e0:	02012b03          	lw	s6,32(sp)
    18e4:	04010113          	addi	sp,sp,64
    18e8:	00008067          	ret

000018ec <typinggame>:
    18ec:	fc010113          	addi	sp,sp,-64
    18f0:	000ff517          	auipc	a0,0xff
    18f4:	c5c50513          	addi	a0,a0,-932 # 10054c <vZkqLfCIMW+0x400>
    18f8:	02112e23          	sw	ra,60(sp)
    18fc:	02812c23          	sw	s0,56(sp)
    1900:	02912a23          	sw	s1,52(sp)
    1904:	03212823          	sw	s2,48(sp)
    1908:	03312623          	sw	s3,44(sp)
    190c:	03512223          	sw	s5,36(sp)
    1910:	01712e23          	sw	s7,28(sp)
    1914:	03412423          	sw	s4,40(sp)
    1918:	03612023          	sw	s6,32(sp)
    191c:	00110797          	auipc	a5,0x110
    1920:	c807ae23          	sw	zero,-868(a5) # 1115b8 <hit>
    1924:	0010f797          	auipc	a5,0x10f
    1928:	2807a623          	sw	zero,652(a5) # 110bb0 <miss>
    192c:	0010f797          	auipc	a5,0x10f
    1930:	2807a423          	sw	zero,648(a5) # 110bb4 <wrong>
    1934:	360040ef          	jal	ra,5c94 <printf>
    1938:	00a00513          	li	a0,10
    193c:	170030ef          	jal	ra,4aac <putch>
    1940:	00100513          	li	a0,1
    1944:	fccfe0ef          	jal	ra,110 <sleep>
    1948:	79d020ef          	jal	ra,48e4 <ioe_init>
    194c:	da1ff0ef          	jal	ra,16ec <video_init>
    1950:	00100513          	li	a0,1
    1954:	00008937          	lui	s2,0x8
    1958:	5fd020ef          	jal	ra,4754 <change_vga>
    195c:	00000b93          	li	s7,0
    1960:	00000413          	li	s0,0
    1964:	23590913          	addi	s2,s2,565 # 8235 <_etext+0x1d31>
    1968:	00000993          	li	s3,0
    196c:	00100a93          	li	s5,1
    1970:	000ff497          	auipc	s1,0xff
    1974:	68c48493          	addi	s1,s1,1676 # 100ffc <font>
    1978:	00810593          	addi	a1,sp,8
    197c:	00600513          	li	a0,6
    1980:	7bd020ef          	jal	ra,493c <ioe_read>
    1984:	00812503          	lw	a0,8(sp)
    1988:	00c12583          	lw	a1,12(sp)
    198c:	00090613          	mv	a2,s2
    1990:	00098693          	mv	a3,s3
    1994:	36d030ef          	jal	ra,5500 <__udivdi3>
    1998:	00050b13          	mv	s6,a0
    199c:	00050a13          	mv	s4,a0
    19a0:	00a45c63          	bge	s0,a0,19b8 <typinggame+0xcc>
    19a4:	00040513          	mv	a0,s0
    19a8:	00140413          	addi	s0,s0,1
    19ac:	9d9ff0ef          	jal	ra,1384 <game_logic_update>
    19b0:	fe8a1ae3          	bne	s4,s0,19a4 <typinggame+0xb8>
    19b4:	000b0413          	mv	s0,s6
    19b8:	00810593          	addi	a1,sp,8
    19bc:	00800513          	li	a0,8
    19c0:	77d020ef          	jal	ra,493c <ioe_read>
    19c4:	00c12783          	lw	a5,12(sp)
    19c8:	00814703          	lbu	a4,8(sp)
    19cc:	00f486b3          	add	a3,s1,a5
    19d0:	02078a63          	beqz	a5,1a04 <typinggame+0x118>
    19d4:	fe0702e3          	beqz	a4,19b8 <typinggame+0xcc>
    19d8:	03578e63          	beq	a5,s5,1a14 <typinggame+0x128>
    19dc:	1a06c503          	lbu	a0,416(a3)
    19e0:	fc050ce3          	beqz	a0,19b8 <typinggame+0xcc>
    19e4:	c21ff0ef          	jal	ra,1604 <check_hit>
    19e8:	00810593          	addi	a1,sp,8
    19ec:	00800513          	li	a0,8
    19f0:	74d020ef          	jal	ra,493c <ioe_read>
    19f4:	00c12783          	lw	a5,12(sp)
    19f8:	00814703          	lbu	a4,8(sp)
    19fc:	00f486b3          	add	a3,s1,a5
    1a00:	fc079ae3          	bnez	a5,19d4 <typinggame+0xe8>
    1a04:	f68bdae3          	bge	s7,s0,1978 <typinggame+0x8c>
    1a08:	a49ff0ef          	jal	ra,1450 <render>
    1a0c:	00040b93          	mv	s7,s0
    1a10:	f69ff06f          	j	1978 <typinggame+0x8c>
    1a14:	00000513          	li	a0,0
    1a18:	53d020ef          	jal	ra,4754 <change_vga>
    1a1c:	0010f697          	auipc	a3,0x10f
    1a20:	1986a683          	lw	a3,408(a3) # 110bb4 <wrong>
    1a24:	0010f617          	auipc	a2,0x10f
    1a28:	18c62603          	lw	a2,396(a2) # 110bb0 <miss>
    1a2c:	00110597          	auipc	a1,0x110
    1a30:	b8c5a583          	lw	a1,-1140(a1) # 1115b8 <hit>
    1a34:	000ff517          	auipc	a0,0xff
    1a38:	b2c50513          	addi	a0,a0,-1236 # 100560 <vZkqLfCIMW+0x414>
    1a3c:	258040ef          	jal	ra,5c94 <printf>
    1a40:	00a00513          	li	a0,10
    1a44:	068030ef          	jal	ra,4aac <putch>
    1a48:	03c12083          	lw	ra,60(sp)
    1a4c:	03812403          	lw	s0,56(sp)
    1a50:	03412483          	lw	s1,52(sp)
    1a54:	03012903          	lw	s2,48(sp)
    1a58:	02c12983          	lw	s3,44(sp)
    1a5c:	02812a03          	lw	s4,40(sp)
    1a60:	02412a83          	lw	s5,36(sp)
    1a64:	02012b03          	lw	s6,32(sp)
    1a68:	01c12b83          	lw	s7,28(sp)
    1a6c:	04010113          	addi	sp,sp,64
    1a70:	00008067          	ret

00001a74 <is_digit>:
    1a74:	fd050513          	addi	a0,a0,-48
    1a78:	00a53513          	sltiu	a0,a0,10
    1a7c:	00008067          	ret

00001a80 <oper_level>:
    1a80:	fdd50513          	addi	a0,a0,-35
    1a84:	0ff57513          	andi	a0,a0,255
    1a88:	03b00793          	li	a5,59
    1a8c:	00a7ec63          	bltu	a5,a0,1aa4 <oper_level+0x24>
    1a90:	000ff797          	auipc	a5,0xff
    1a94:	b3078793          	addi	a5,a5,-1232 # 1005c0 <CSWTCH.57>
    1a98:	00a78533          	add	a0,a5,a0
    1a9c:	00050503          	lb	a0,0(a0)
    1aa0:	00008067          	ret
    1aa4:	fff00513          	li	a0,-1
    1aa8:	00008067          	ret

00001aac <handle_error>:
    1aac:	ff010113          	addi	sp,sp,-16
    1ab0:	000ff517          	auipc	a0,0xff
    1ab4:	ad050513          	addi	a0,a0,-1328 # 100580 <vZkqLfCIMW+0x434>
    1ab8:	00112623          	sw	ra,12(sp)
    1abc:	6fc040ef          	jal	ra,61b8 <puts>
    1ac0:	00a00513          	li	a0,10
    1ac4:	7e9020ef          	jal	ra,4aac <putch>
    1ac8:	00c12083          	lw	ra,12(sp)
    1acc:	00100793          	li	a5,1
    1ad0:	00105717          	auipc	a4,0x105
    1ad4:	28f72e23          	sw	a5,668(a4) # 106d6c <error>
    1ad8:	01010113          	addi	sp,sp,16
    1adc:	00008067          	ret

00001ae0 <normalize>:
    1ae0:	ff010113          	addi	sp,sp,-16
    1ae4:	00110517          	auipc	a0,0x110
    1ae8:	bbc50513          	addi	a0,a0,-1092 # 1116a0 <buf>
    1aec:	00112623          	sw	ra,12(sp)
    1af0:	00812423          	sw	s0,8(sp)
    1af4:	491030ef          	jal	ra,5784 <strlen>
    1af8:	00110797          	auipc	a5,0x110
    1afc:	ba878793          	addi	a5,a5,-1112 # 1116a0 <buf>
    1b00:	0007c683          	lbu	a3,0(a5)
    1b04:	02d00713          	li	a4,45
    1b08:	06e68863          	beq	a3,a4,1b78 <normalize+0x98>
    1b0c:	04050e63          	beqz	a0,1b68 <normalize+0x88>
    1b10:	0007c703          	lbu	a4,0(a5)
    1b14:	00100413          	li	s0,1
    1b18:	00110797          	auipc	a5,0x110
    1b1c:	b8878793          	addi	a5,a5,-1144 # 1116a0 <buf>
    1b20:	02800613          	li	a2,40
    1b24:	40f406b3          	sub	a3,s0,a5
    1b28:	02d00593          	li	a1,45
    1b2c:	02300813          	li	a6,35
    1b30:	00c70c63          	beq	a4,a2,1b48 <normalize+0x68>
    1b34:	00f68733          	add	a4,a3,a5
    1b38:	02e50863          	beq	a0,a4,1b68 <normalize+0x88>
    1b3c:	0017c703          	lbu	a4,1(a5)
    1b40:	00178793          	addi	a5,a5,1
    1b44:	fec718e3          	bne	a4,a2,1b34 <normalize+0x54>
    1b48:	00f68733          	add	a4,a3,a5
    1b4c:	02a77c63          	bgeu	a4,a0,1b84 <normalize+0xa4>
    1b50:	0017c703          	lbu	a4,1(a5)
    1b54:	feb716e3          	bne	a4,a1,1b40 <normalize+0x60>
    1b58:	010780a3          	sb	a6,1(a5)
    1b5c:	00178793          	addi	a5,a5,1
    1b60:	00f68733          	add	a4,a3,a5
    1b64:	fce51ce3          	bne	a0,a4,1b3c <normalize+0x5c>
    1b68:	00c12083          	lw	ra,12(sp)
    1b6c:	00812403          	lw	s0,8(sp)
    1b70:	01010113          	addi	sp,sp,16
    1b74:	00008067          	ret
    1b78:	02300713          	li	a4,35
    1b7c:	00e78023          	sb	a4,0(a5)
    1b80:	f8dff06f          	j	1b0c <normalize+0x2c>
    1b84:	000ff517          	auipc	a0,0xff
    1b88:	9fc50513          	addi	a0,a0,-1540 # 100580 <vZkqLfCIMW+0x434>
    1b8c:	62c040ef          	jal	ra,61b8 <puts>
    1b90:	00a00513          	li	a0,10
    1b94:	719020ef          	jal	ra,4aac <putch>
    1b98:	00c12083          	lw	ra,12(sp)
    1b9c:	00105797          	auipc	a5,0x105
    1ba0:	1c87a823          	sw	s0,464(a5) # 106d6c <error>
    1ba4:	00812403          	lw	s0,8(sp)
    1ba8:	01010113          	addi	sp,sp,16
    1bac:	00008067          	ret

00001bb0 <convert>:
    1bb0:	fd010113          	addi	sp,sp,-48
    1bb4:	00110517          	auipc	a0,0x110
    1bb8:	aec50513          	addi	a0,a0,-1300 # 1116a0 <buf>
    1bbc:	01412c23          	sw	s4,24(sp)
    1bc0:	01512a23          	sw	s5,20(sp)
    1bc4:	02112623          	sw	ra,44(sp)
    1bc8:	02812423          	sw	s0,40(sp)
    1bcc:	02912223          	sw	s1,36(sp)
    1bd0:	03212023          	sw	s2,32(sp)
    1bd4:	01312e23          	sw	s3,28(sp)
    1bd8:	01612823          	sw	s6,16(sp)
    1bdc:	01712623          	sw	s7,12(sp)
    1be0:	01812423          	sw	s8,8(sp)
    1be4:	01912223          	sw	s9,4(sp)
    1be8:	01a12023          	sw	s10,0(sp)
    1bec:	00100a17          	auipc	s4,0x100
    1bf0:	910a0a13          	addi	s4,s4,-1776 # 1014fc <op_top>
    1bf4:	391030ef          	jal	ra,5784 <strlen>
    1bf8:	000a2a83          	lw	s5,0(s4)
    1bfc:	26050c63          	beqz	a0,1e74 <convert+0x2c4>
    1c00:	00110f97          	auipc	t6,0x110
    1c04:	9c0f8f93          	addi	t6,t6,-1600 # 1115c0 <op_stack>
    1c08:	000a8593          	mv	a1,s5
    1c0c:	00000b13          	li	s6,0
    1c10:	00000693          	li	a3,0
    1c14:	00000793          	li	a5,0
    1c18:	00110897          	auipc	a7,0x110
    1c1c:	a8888893          	addi	a7,a7,-1400 # 1116a0 <buf>
    1c20:	02000913          	li	s2,32
    1c24:	00900313          	li	t1,9
    1c28:	02800f13          	li	t5,40
    1c2c:	02900993          	li	s3,41
    1c30:	03b00293          	li	t0,59
    1c34:	000ff397          	auipc	t2,0xff
    1c38:	98c38393          	addi	t2,t2,-1652 # 1005c0 <CSWTCH.57>
    1c3c:	fff00493          	li	s1,-1
    1c40:	00110e97          	auipc	t4,0x110
    1c44:	a20e8e93          	addi	t4,t4,-1504 # 111660 <suf>
    1c48:	02000e13          	li	t3,32
    1c4c:	ffffc413          	not	s0,t6
    1c50:	00d88733          	add	a4,a7,a3
    1c54:	00074703          	lbu	a4,0(a4)
    1c58:	13270c63          	beq	a4,s2,1d90 <convert+0x1e0>
    1c5c:	fd070613          	addi	a2,a4,-48
    1c60:	0ff67613          	andi	a2,a2,255
    1c64:	0ec37863          	bgeu	t1,a2,1d54 <convert+0x1a4>
    1c68:	13e70a63          	beq	a4,t5,1d9c <convert+0x1ec>
    1c6c:	1b370663          	beq	a4,s3,1e18 <convert+0x268>
    1c70:	fdd70613          	addi	a2,a4,-35
    1c74:	0ff67613          	andi	a2,a2,255
    1c78:	14c2e063          	bltu	t0,a2,1db8 <convert+0x208>
    1c7c:	00c38633          	add	a2,t2,a2
    1c80:	00060c83          	lb	s9,0(a2)
    1c84:	129c8a63          	beq	s9,s1,1db8 <convert+0x208>
    1c88:	1c05ce63          	bltz	a1,1e64 <convert+0x2b4>
    1c8c:	00bf8b33          	add	s6,t6,a1
    1c90:	00fe8833          	add	a6,t4,a5
    1c94:	000b4b83          	lbu	s7,0(s6)
    1c98:	fff00c13          	li	s8,-1
    1c9c:	fffb0b13          	addi	s6,s6,-1
    1ca0:	fddb8613          	addi	a2,s7,-35
    1ca4:	0ff67613          	andi	a2,a2,255
    1ca8:	00c38d33          	add	s10,t2,a2
    1cac:	00c2e463          	bltu	t0,a2,1cb4 <convert+0x104>
    1cb0:	000d0c03          	lb	s8,0(s10)
    1cb4:	1b9c4863          	blt	s8,s9,1e64 <convert+0x2b4>
    1cb8:	01780023          	sb	s7,0(a6)
    1cbc:	01c800a3          	sb	t3,1(a6)
    1cc0:	fff58593          	addi	a1,a1,-1
    1cc4:	00278793          	addi	a5,a5,2
    1cc8:	00280813          	addi	a6,a6,2
    1ccc:	fc9594e3          	bne	a1,s1,1c94 <convert+0xe4>
    1cd0:	00000593          	li	a1,0
    1cd4:	00bf8633          	add	a2,t6,a1
    1cd8:	00e60023          	sb	a4,0(a2)
    1cdc:	00168693          	addi	a3,a3,1
    1ce0:	00100b13          	li	s6,1
    1ce4:	f6d516e3          	bne	a0,a3,1c50 <convert+0xa0>
    1ce8:	180b0263          	beqz	s6,1e6c <convert+0x2bc>
    1cec:	00ba2023          	sw	a1,0(s4)
    1cf0:	00110317          	auipc	t1,0x110
    1cf4:	97030313          	addi	t1,t1,-1680 # 111660 <suf>
    1cf8:	0405c863          	bltz	a1,1d48 <convert+0x198>
    1cfc:	00110817          	auipc	a6,0x110
    1d00:	8c480813          	addi	a6,a6,-1852 # 1115c0 <op_stack>
    1d04:	00110317          	auipc	t1,0x110
    1d08:	95c30313          	addi	t1,t1,-1700 # 111660 <suf>
    1d0c:	00b806b3          	add	a3,a6,a1
    1d10:	00f30733          	add	a4,t1,a5
    1d14:	02000893          	li	a7,32
    1d18:	0006c503          	lbu	a0,0(a3)
    1d1c:	011700a3          	sb	a7,1(a4)
    1d20:	00068613          	mv	a2,a3
    1d24:	00a70023          	sb	a0,0(a4)
    1d28:	fff68693          	addi	a3,a3,-1
    1d2c:	00270713          	addi	a4,a4,2
    1d30:	fec814e3          	bne	a6,a2,1d18 <convert+0x168>
    1d34:	00278793          	addi	a5,a5,2
    1d38:	00159593          	slli	a1,a1,0x1
    1d3c:	fff00713          	li	a4,-1
    1d40:	00f587b3          	add	a5,a1,a5
    1d44:	00ea2023          	sw	a4,0(s4)
    1d48:	00f307b3          	add	a5,t1,a5
    1d4c:	00078023          	sb	zero,0(a5)
    1d50:	0900006f          	j	1de0 <convert+0x230>
    1d54:	40f68c33          	sub	s8,a3,a5
    1d58:	00078b93          	mv	s7,a5
    1d5c:	00178793          	addi	a5,a5,1
    1d60:	00fc06b3          	add	a3,s8,a5
    1d64:	00d88633          	add	a2,a7,a3
    1d68:	00fe8833          	add	a6,t4,a5
    1d6c:	fee80fa3          	sb	a4,-1(a6)
    1d70:	00064703          	lbu	a4,0(a2)
    1d74:	fd070613          	addi	a2,a4,-48
    1d78:	0ff67613          	andi	a2,a2,255
    1d7c:	fcc37ee3          	bgeu	t1,a2,1d58 <convert+0x1a8>
    1d80:	01c80023          	sb	t3,0(a6)
    1d84:	002b8793          	addi	a5,s7,2
    1d88:	ecd514e3          	bne	a0,a3,1c50 <convert+0xa0>
    1d8c:	f5dff06f          	j	1ce8 <convert+0x138>
    1d90:	00168693          	addi	a3,a3,1
    1d94:	ead51ee3          	bne	a0,a3,1c50 <convert+0xa0>
    1d98:	f51ff06f          	j	1ce8 <convert+0x138>
    1d9c:	00158593          	addi	a1,a1,1
    1da0:	00bf8733          	add	a4,t6,a1
    1da4:	01e70023          	sb	t5,0(a4)
    1da8:	00168693          	addi	a3,a3,1
    1dac:	00100b13          	li	s6,1
    1db0:	ead510e3          	bne	a0,a3,1c50 <convert+0xa0>
    1db4:	f35ff06f          	j	1ce8 <convert+0x138>
    1db8:	000b0463          	beqz	s6,1dc0 <convert+0x210>
    1dbc:	00ba2023          	sw	a1,0(s4)
    1dc0:	000fe517          	auipc	a0,0xfe
    1dc4:	7c050513          	addi	a0,a0,1984 # 100580 <vZkqLfCIMW+0x434>
    1dc8:	3f0040ef          	jal	ra,61b8 <puts>
    1dcc:	00a00513          	li	a0,10
    1dd0:	4dd020ef          	jal	ra,4aac <putch>
    1dd4:	00100793          	li	a5,1
    1dd8:	00105717          	auipc	a4,0x105
    1ddc:	f8f72a23          	sw	a5,-108(a4) # 106d6c <error>
    1de0:	02c12083          	lw	ra,44(sp)
    1de4:	02812403          	lw	s0,40(sp)
    1de8:	02412483          	lw	s1,36(sp)
    1dec:	02012903          	lw	s2,32(sp)
    1df0:	01c12983          	lw	s3,28(sp)
    1df4:	01812a03          	lw	s4,24(sp)
    1df8:	01412a83          	lw	s5,20(sp)
    1dfc:	01012b03          	lw	s6,16(sp)
    1e00:	00c12b83          	lw	s7,12(sp)
    1e04:	00812c03          	lw	s8,8(sp)
    1e08:	00412c83          	lw	s9,4(sp)
    1e0c:	00012d03          	lw	s10,0(sp)
    1e10:	03010113          	addi	sp,sp,48
    1e14:	00008067          	ret
    1e18:	01f58733          	add	a4,a1,t6
    1e1c:	00fe8633          	add	a2,t4,a5
    1e20:	0205d063          	bgez	a1,1e40 <convert+0x290>
    1e24:	0300006f          	j	1e54 <convert+0x2a4>
    1e28:	01060023          	sb	a6,0(a2)
    1e2c:	01c600a3          	sb	t3,1(a2)
    1e30:	00278793          	addi	a5,a5,2
    1e34:	00260613          	addi	a2,a2,2
    1e38:	00ef8e63          	beq	t6,a4,1e54 <convert+0x2a4>
    1e3c:	000b0713          	mv	a4,s6
    1e40:	00074803          	lbu	a6,0(a4)
    1e44:	00e405b3          	add	a1,s0,a4
    1e48:	fff70b13          	addi	s6,a4,-1
    1e4c:	fde81ee3          	bne	a6,t5,1e28 <convert+0x278>
    1e50:	e8dff06f          	j	1cdc <convert+0x12c>
    1e54:	fff58593          	addi	a1,a1,-1
    1e58:	00168693          	addi	a3,a3,1
    1e5c:	00100b13          	li	s6,1
    1e60:	e85ff06f          	j	1ce4 <convert+0x134>
    1e64:	00158593          	addi	a1,a1,1
    1e68:	e6dff06f          	j	1cd4 <convert+0x124>
    1e6c:	000a8593          	mv	a1,s5
    1e70:	e81ff06f          	j	1cf0 <convert+0x140>
    1e74:	000a8593          	mv	a1,s5
    1e78:	00000793          	li	a5,0
    1e7c:	e75ff06f          	j	1cf0 <convert+0x140>

00001e80 <qpow>:
    1e80:	ff010113          	addi	sp,sp,-16
    1e84:	00112623          	sw	ra,12(sp)
    1e88:	00812423          	sw	s0,8(sp)
    1e8c:	00912223          	sw	s1,4(sp)
    1e90:	01212023          	sw	s2,0(sp)
    1e94:	04058e63          	beqz	a1,1ef0 <qpow+0x70>
    1e98:	00058493          	mv	s1,a1
    1e9c:	00050413          	mv	s0,a0
    1ea0:	00100913          	li	s2,1
    1ea4:	0014f793          	andi	a5,s1,1
    1ea8:	00040593          	mv	a1,s0
    1eac:	00090513          	mv	a0,s2
    1eb0:	4014d493          	srai	s1,s1,0x1
    1eb4:	00078663          	beqz	a5,1ec0 <qpow+0x40>
    1eb8:	0a1030ef          	jal	ra,5758 <__mulsi3>
    1ebc:	00050913          	mv	s2,a0
    1ec0:	00040593          	mv	a1,s0
    1ec4:	00040513          	mv	a0,s0
    1ec8:	091030ef          	jal	ra,5758 <__mulsi3>
    1ecc:	00050413          	mv	s0,a0
    1ed0:	fc049ae3          	bnez	s1,1ea4 <qpow+0x24>
    1ed4:	00c12083          	lw	ra,12(sp)
    1ed8:	00812403          	lw	s0,8(sp)
    1edc:	00412483          	lw	s1,4(sp)
    1ee0:	00090513          	mv	a0,s2
    1ee4:	00012903          	lw	s2,0(sp)
    1ee8:	01010113          	addi	sp,sp,16
    1eec:	00008067          	ret
    1ef0:	00c12083          	lw	ra,12(sp)
    1ef4:	00812403          	lw	s0,8(sp)
    1ef8:	00100913          	li	s2,1
    1efc:	00412483          	lw	s1,4(sp)
    1f00:	00090513          	mv	a0,s2
    1f04:	00012903          	lw	s2,0(sp)
    1f08:	01010113          	addi	sp,sp,16
    1f0c:	00008067          	ret

00001f10 <evaluate>:
    1f10:	fb010113          	addi	sp,sp,-80
    1f14:	0010f517          	auipc	a0,0x10f
    1f18:	74c50513          	addi	a0,a0,1868 # 111660 <suf>
    1f1c:	03312e23          	sw	s3,60(sp)
    1f20:	04112623          	sw	ra,76(sp)
    1f24:	04812423          	sw	s0,72(sp)
    1f28:	04912223          	sw	s1,68(sp)
    1f2c:	05212023          	sw	s2,64(sp)
    1f30:	03412c23          	sw	s4,56(sp)
    1f34:	03512a23          	sw	s5,52(sp)
    1f38:	03612823          	sw	s6,48(sp)
    1f3c:	03712623          	sw	s7,44(sp)
    1f40:	03812423          	sw	s8,40(sp)
    1f44:	03912223          	sw	s9,36(sp)
    1f48:	03a12023          	sw	s10,32(sp)
    1f4c:	01b12e23          	sw	s11,28(sp)
    1f50:	035030ef          	jal	ra,5784 <strlen>
    1f54:	000ff797          	auipc	a5,0xff
    1f58:	5a478793          	addi	a5,a5,1444 # 1014f8 <num_top>
    1f5c:	0007a583          	lw	a1,0(a5)
    1f60:	0010f997          	auipc	s3,0x10f
    1f64:	68098993          	addi	s3,s3,1664 # 1115e0 <num_stack>
    1f68:	10050463          	beqz	a0,2070 <evaluate+0x160>
    1f6c:	0010f917          	auipc	s2,0x10f
    1f70:	6f490913          	addi	s2,s2,1780 # 111660 <suf>
    1f74:	00100313          	li	t1,1
    1f78:	00050493          	mv	s1,a0
    1f7c:	00000d93          	li	s11,0
    1f80:	00000513          	li	a0,0
    1f84:	00900d13          	li	s10,9
    1f88:	0010fc97          	auipc	s9,0x10f
    1f8c:	658c8c93          	addi	s9,s9,1624 # 1115e0 <num_stack>
    1f90:	02d00a93          	li	s5,45
    1f94:	41230c33          	sub	s8,t1,s2
    1f98:	0680006f          	j	2000 <evaluate+0xf0>
    1f9c:	02300793          	li	a5,35
    1fa0:	14f70263          	beq	a4,a5,20e4 <evaluate+0x1d4>
    1fa4:	2405c463          	bltz	a1,21ec <evaluate+0x2dc>
    1fa8:	00259693          	slli	a3,a1,0x2
    1fac:	00dc86b3          	add	a3,s9,a3
    1fb0:	fff58413          	addi	s0,a1,-1
    1fb4:	fff00793          	li	a5,-1
    1fb8:	0006ab83          	lw	s7,0(a3)
    1fbc:	000c8993          	mv	s3,s9
    1fc0:	22f40a63          	beq	s0,a5,21f4 <evaluate+0x2e4>
    1fc4:	00241a13          	slli	s4,s0,0x2
    1fc8:	014c8e33          	add	t3,s9,s4
    1fcc:	000e2683          	lw	a3,0(t3)
    1fd0:	17570a63          	beq	a4,s5,2144 <evaluate+0x234>
    1fd4:	0aeae663          	bltu	s5,a4,2080 <evaluate+0x170>
    1fd8:	02a00793          	li	a5,42
    1fdc:	1ef70663          	beq	a4,a5,21c8 <evaluate+0x2b8>
    1fe0:	02b00793          	li	a5,43
    1fe4:	16f71a63          	bne	a4,a5,2158 <evaluate+0x248>
    1fe8:	00db86b3          	add	a3,s7,a3
    1fec:	00de2023          	sw	a3,0(t3)
    1ff0:	002d8d93          	addi	s11,s11,2
    1ff4:	00040593          	mv	a1,s0
    1ff8:	00100513          	li	a0,1
    1ffc:	07b48463          	beq	s1,s11,2064 <evaluate+0x154>
    2000:	01b90633          	add	a2,s2,s11
    2004:	00064703          	lbu	a4,0(a2)
    2008:	fd070693          	addi	a3,a4,-48
    200c:	0ff6f693          	andi	a3,a3,255
    2010:	f8dd66e3          	bltu	s10,a3,1f9c <evaluate+0x8c>
    2014:	00000693          	li	a3,0
    2018:	00169793          	slli	a5,a3,0x1
    201c:	00369693          	slli	a3,a3,0x3
    2020:	00d787b3          	add	a5,a5,a3
    2024:	00e787b3          	add	a5,a5,a4
    2028:	00164703          	lbu	a4,1(a2)
    202c:	fd078693          	addi	a3,a5,-48
    2030:	00cc0533          	add	a0,s8,a2
    2034:	fd070793          	addi	a5,a4,-48
    2038:	0ff7f793          	andi	a5,a5,255
    203c:	00160613          	addi	a2,a2,1
    2040:	fcfd7ce3          	bgeu	s10,a5,2018 <evaluate+0x108>
    2044:	00158593          	addi	a1,a1,1
    2048:	00259713          	slli	a4,a1,0x2
    204c:	00ec8733          	add	a4,s9,a4
    2050:	00150d93          	addi	s11,a0,1
    2054:	00d72023          	sw	a3,0(a4)
    2058:	000c8993          	mv	s3,s9
    205c:	00100513          	li	a0,1
    2060:	fbb490e3          	bne	s1,s11,2000 <evaluate+0xf0>
    2064:	000ff797          	auipc	a5,0xff
    2068:	49478793          	addi	a5,a5,1172 # 1014f8 <num_top>
    206c:	00b7a023          	sw	a1,0(a5)
    2070:	00259593          	slli	a1,a1,0x2
    2074:	00b989b3          	add	s3,s3,a1
    2078:	0009a503          	lw	a0,0(s3)
    207c:	1100006f          	j	218c <evaluate+0x27c>
    2080:	02f00793          	li	a5,47
    2084:	08f70e63          	beq	a4,a5,2120 <evaluate+0x210>
    2088:	05e00793          	li	a5,94
    208c:	0cf71663          	bne	a4,a5,2158 <evaluate+0x248>
    2090:	00100b13          	li	s6,1
    2094:	020b8e63          	beqz	s7,20d0 <evaluate+0x1c0>
    2098:	001bfe13          	andi	t3,s7,1
    209c:	00068593          	mv	a1,a3
    20a0:	000b0513          	mv	a0,s6
    20a4:	401bdb93          	srai	s7,s7,0x1
    20a8:	000e0a63          	beqz	t3,20bc <evaluate+0x1ac>
    20ac:	00d12423          	sw	a3,8(sp)
    20b0:	6a8030ef          	jal	ra,5758 <__mulsi3>
    20b4:	00812683          	lw	a3,8(sp)
    20b8:	00050b13          	mv	s6,a0
    20bc:	00068593          	mv	a1,a3
    20c0:	00068513          	mv	a0,a3
    20c4:	694030ef          	jal	ra,5758 <__mulsi3>
    20c8:	00050693          	mv	a3,a0
    20cc:	fc0b96e3          	bnez	s7,2098 <evaluate+0x188>
    20d0:	014c8a33          	add	s4,s9,s4
    20d4:	016a2023          	sw	s6,0(s4)
    20d8:	002d8d93          	addi	s11,s11,2
    20dc:	00040593          	mv	a1,s0
    20e0:	f19ff06f          	j	1ff8 <evaluate+0xe8>
    20e4:	000c8993          	mv	s3,s9
    20e8:	0005cc63          	bltz	a1,2100 <evaluate+0x1f0>
    20ec:	00259713          	slli	a4,a1,0x2
    20f0:	00ec8733          	add	a4,s9,a4
    20f4:	00072783          	lw	a5,0(a4)
    20f8:	fff58593          	addi	a1,a1,-1
    20fc:	00f12623          	sw	a5,12(sp)
    2100:	00c12783          	lw	a5,12(sp)
    2104:	00158593          	addi	a1,a1,1
    2108:	00259713          	slli	a4,a1,0x2
    210c:	00ec8733          	add	a4,s9,a4
    2110:	40f006b3          	neg	a3,a5
    2114:	00d72023          	sw	a3,0(a4)
    2118:	002d8d93          	addi	s11,s11,2
    211c:	eddff06f          	j	1ff8 <evaluate+0xe8>
    2120:	000b8593          	mv	a1,s7
    2124:	00068513          	mv	a0,a3
    2128:	01c12423          	sw	t3,8(sp)
    212c:	578030ef          	jal	ra,56a4 <__divsi3>
    2130:	00812e03          	lw	t3,8(sp)
    2134:	002d8d93          	addi	s11,s11,2
    2138:	00040593          	mv	a1,s0
    213c:	00ae2023          	sw	a0,0(t3)
    2140:	eb9ff06f          	j	1ff8 <evaluate+0xe8>
    2144:	417686b3          	sub	a3,a3,s7
    2148:	00de2023          	sw	a3,0(t3)
    214c:	002d8d93          	addi	s11,s11,2
    2150:	00040593          	mv	a1,s0
    2154:	ea5ff06f          	j	1ff8 <evaluate+0xe8>
    2158:	ffe58593          	addi	a1,a1,-2
    215c:	000ff797          	auipc	a5,0xff
    2160:	39c78793          	addi	a5,a5,924 # 1014f8 <num_top>
    2164:	00b7a023          	sw	a1,0(a5)
    2168:	000fe517          	auipc	a0,0xfe
    216c:	41850513          	addi	a0,a0,1048 # 100580 <vZkqLfCIMW+0x434>
    2170:	048040ef          	jal	ra,61b8 <puts>
    2174:	00a00513          	li	a0,10
    2178:	135020ef          	jal	ra,4aac <putch>
    217c:	00100793          	li	a5,1
    2180:	00105717          	auipc	a4,0x105
    2184:	bef72623          	sw	a5,-1044(a4) # 106d6c <error>
    2188:	00000513          	li	a0,0
    218c:	04c12083          	lw	ra,76(sp)
    2190:	04812403          	lw	s0,72(sp)
    2194:	04412483          	lw	s1,68(sp)
    2198:	04012903          	lw	s2,64(sp)
    219c:	03c12983          	lw	s3,60(sp)
    21a0:	03812a03          	lw	s4,56(sp)
    21a4:	03412a83          	lw	s5,52(sp)
    21a8:	03012b03          	lw	s6,48(sp)
    21ac:	02c12b83          	lw	s7,44(sp)
    21b0:	02812c03          	lw	s8,40(sp)
    21b4:	02412c83          	lw	s9,36(sp)
    21b8:	02012d03          	lw	s10,32(sp)
    21bc:	01c12d83          	lw	s11,28(sp)
    21c0:	05010113          	addi	sp,sp,80
    21c4:	00008067          	ret
    21c8:	00068593          	mv	a1,a3
    21cc:	000b8513          	mv	a0,s7
    21d0:	01c12423          	sw	t3,8(sp)
    21d4:	584030ef          	jal	ra,5758 <__mulsi3>
    21d8:	00812e03          	lw	t3,8(sp)
    21dc:	002d8d93          	addi	s11,s11,2
    21e0:	00040593          	mv	a1,s0
    21e4:	00ae2023          	sw	a0,0(t3)
    21e8:	e11ff06f          	j	1ff8 <evaluate+0xe8>
    21ec:	f60518e3          	bnez	a0,215c <evaluate+0x24c>
    21f0:	f79ff06f          	j	2168 <evaluate+0x258>
    21f4:	000ff797          	auipc	a5,0xff
    21f8:	30478793          	addi	a5,a5,772 # 1014f8 <num_top>
    21fc:	fff00713          	li	a4,-1
    2200:	00e7a023          	sw	a4,0(a5)
    2204:	f65ff06f          	j	2168 <evaluate+0x258>

00002208 <eval>:
    2208:	ff010113          	addi	sp,sp,-16
    220c:	000fe517          	auipc	a0,0xfe
    2210:	38850513          	addi	a0,a0,904 # 100594 <vZkqLfCIMW+0x448>
    2214:	00112623          	sw	ra,12(sp)
    2218:	00812423          	sw	s0,8(sp)
    221c:	79d030ef          	jal	ra,61b8 <puts>
    2220:	0010f517          	auipc	a0,0x10f
    2224:	48050513          	addi	a0,a0,1152 # 1116a0 <buf>
    2228:	00105417          	auipc	s0,0x105
    222c:	b4440413          	addi	s0,s0,-1212 # 106d6c <error>
    2230:	20c040ef          	jal	ra,643c <gets>
    2234:	00042783          	lw	a5,0(s0)
    2238:	00078a63          	beqz	a5,224c <eval+0x44>
    223c:	00c12083          	lw	ra,12(sp)
    2240:	00812403          	lw	s0,8(sp)
    2244:	01010113          	addi	sp,sp,16
    2248:	00008067          	ret
    224c:	895ff0ef          	jal	ra,1ae0 <normalize>
    2250:	00042783          	lw	a5,0(s0)
    2254:	fe0794e3          	bnez	a5,223c <eval+0x34>
    2258:	959ff0ef          	jal	ra,1bb0 <convert>
    225c:	00042783          	lw	a5,0(s0)
    2260:	fc079ee3          	bnez	a5,223c <eval+0x34>
    2264:	cadff0ef          	jal	ra,1f10 <evaluate>
    2268:	00042783          	lw	a5,0(s0)
    226c:	00050593          	mv	a1,a0
    2270:	fc0796e3          	bnez	a5,223c <eval+0x34>
    2274:	000fe517          	auipc	a0,0xfe
    2278:	34050513          	addi	a0,a0,832 # 1005b4 <vZkqLfCIMW+0x468>
    227c:	219030ef          	jal	ra,5c94 <printf>
    2280:	00812403          	lw	s0,8(sp)
    2284:	00c12083          	lw	ra,12(sp)
    2288:	00a00513          	li	a0,10
    228c:	01010113          	addi	sp,sp,16
    2290:	01d0206f          	j	4aac <putch>

00002294 <get_seed_32>:
    2294:	00500793          	li	a5,5
    2298:	04a7ee63          	bltu	a5,a0,22f4 <get_seed_32+0x60>
    229c:	000fe717          	auipc	a4,0xfe
    22a0:	36070713          	addi	a4,a4,864 # 1005fc <CSWTCH.57+0x3c>
    22a4:	00251513          	slli	a0,a0,0x2
    22a8:	00e50533          	add	a0,a0,a4
    22ac:	00052783          	lw	a5,0(a0)
    22b0:	00e787b3          	add	a5,a5,a4
    22b4:	00078067          	jr	a5
    22b8:	00105517          	auipc	a0,0x105
    22bc:	a9c52503          	lw	a0,-1380(a0) # 106d54 <seed5_volatile>
    22c0:	00008067          	ret
    22c4:	00105517          	auipc	a0,0x105
    22c8:	a9852503          	lw	a0,-1384(a0) # 106d5c <seed1_volatile>
    22cc:	00008067          	ret
    22d0:	00105517          	auipc	a0,0x105
    22d4:	a8852503          	lw	a0,-1400(a0) # 106d58 <seed2_volatile>
    22d8:	00008067          	ret
    22dc:	000ff517          	auipc	a0,0xff
    22e0:	21852503          	lw	a0,536(a0) # 1014f4 <seed3_volatile>
    22e4:	00008067          	ret
    22e8:	000ff517          	auipc	a0,0xff
    22ec:	20852503          	lw	a0,520(a0) # 1014f0 <seed4_volatile>
    22f0:	00008067          	ret
    22f4:	00000513          	li	a0,0
    22f8:	00008067          	ret

000022fc <crcu8>:
    22fc:	00050693          	mv	a3,a0
    2300:	00058513          	mv	a0,a1
    2304:	ffffa5b7          	lui	a1,0xffffa
    2308:	00800793          	li	a5,8
    230c:	00158593          	addi	a1,a1,1 # ffffa001 <_end+0xffee7c01>
    2310:	00d54733          	xor	a4,a0,a3
    2314:	fff78793          	addi	a5,a5,-1
    2318:	00155513          	srli	a0,a0,0x1
    231c:	00177713          	andi	a4,a4,1
    2320:	0ff7f793          	andi	a5,a5,255
    2324:	00b54633          	xor	a2,a0,a1
    2328:	0016d693          	srli	a3,a3,0x1
    232c:	00070663          	beqz	a4,2338 <crcu8+0x3c>
    2330:	01061513          	slli	a0,a2,0x10
    2334:	01055513          	srli	a0,a0,0x10
    2338:	fc079ce3          	bnez	a5,2310 <crcu8+0x14>
    233c:	00008067          	ret

00002340 <crcu16>:
    2340:	00050693          	mv	a3,a0
    2344:	ffffa837          	lui	a6,0xffffa
    2348:	00058513          	mv	a0,a1
    234c:	0ff6f613          	andi	a2,a3,255
    2350:	00800793          	li	a5,8
    2354:	00180813          	addi	a6,a6,1 # ffffa001 <_end+0xffee7c01>
    2358:	00c54733          	xor	a4,a0,a2
    235c:	fff78793          	addi	a5,a5,-1
    2360:	00155513          	srli	a0,a0,0x1
    2364:	00177713          	andi	a4,a4,1
    2368:	0ff7f793          	andi	a5,a5,255
    236c:	010545b3          	xor	a1,a0,a6
    2370:	00165613          	srli	a2,a2,0x1
    2374:	00070663          	beqz	a4,2380 <crcu16+0x40>
    2378:	01059513          	slli	a0,a1,0x10
    237c:	01055513          	srli	a0,a0,0x10
    2380:	fc079ce3          	bnez	a5,2358 <crcu16+0x18>
    2384:	ffffa5b7          	lui	a1,0xffffa
    2388:	0086d693          	srli	a3,a3,0x8
    238c:	00800793          	li	a5,8
    2390:	00158593          	addi	a1,a1,1 # ffffa001 <_end+0xffee7c01>
    2394:	00d54733          	xor	a4,a0,a3
    2398:	fff78793          	addi	a5,a5,-1
    239c:	00155513          	srli	a0,a0,0x1
    23a0:	00177713          	andi	a4,a4,1
    23a4:	0ff7f793          	andi	a5,a5,255
    23a8:	00b54633          	xor	a2,a0,a1
    23ac:	0016d693          	srli	a3,a3,0x1
    23b0:	00070663          	beqz	a4,23bc <crcu16+0x7c>
    23b4:	01061513          	slli	a0,a2,0x10
    23b8:	01055513          	srli	a0,a0,0x10
    23bc:	fc079ce3          	bnez	a5,2394 <crcu16+0x54>
    23c0:	00008067          	ret

000023c4 <crcu32>:
    23c4:	ff010113          	addi	sp,sp,-16
    23c8:	00812423          	sw	s0,8(sp)
    23cc:	00050413          	mv	s0,a0
    23d0:	01051513          	slli	a0,a0,0x10
    23d4:	01055513          	srli	a0,a0,0x10
    23d8:	00112623          	sw	ra,12(sp)
    23dc:	f65ff0ef          	jal	ra,2340 <crcu16>
    23e0:	00050593          	mv	a1,a0
    23e4:	01045513          	srli	a0,s0,0x10
    23e8:	00812403          	lw	s0,8(sp)
    23ec:	00c12083          	lw	ra,12(sp)
    23f0:	01010113          	addi	sp,sp,16
    23f4:	f4dff06f          	j	2340 <crcu16>

000023f8 <crc16>:
    23f8:	01051513          	slli	a0,a0,0x10
    23fc:	01055513          	srli	a0,a0,0x10
    2400:	f41ff06f          	j	2340 <crcu16>

00002404 <check_data_types>:
    2404:	00000513          	li	a0,0
    2408:	00008067          	ret

0000240c <core_init_matrix>:
    240c:	fb010113          	addi	sp,sp,-80
    2410:	05212023          	sw	s2,64(sp)
    2414:	01b12e23          	sw	s11,28(sp)
    2418:	04112623          	sw	ra,76(sp)
    241c:	04812423          	sw	s0,72(sp)
    2420:	04912223          	sw	s1,68(sp)
    2424:	03312e23          	sw	s3,60(sp)
    2428:	03412c23          	sw	s4,56(sp)
    242c:	03512a23          	sw	s5,52(sp)
    2430:	03612823          	sw	s6,48(sp)
    2434:	03712623          	sw	s7,44(sp)
    2438:	03812423          	sw	s8,40(sp)
    243c:	03912223          	sw	s9,36(sp)
    2440:	03a12023          	sw	s10,32(sp)
    2444:	00d12623          	sw	a3,12(sp)
    2448:	00050913          	mv	s2,a0
    244c:	00100d93          	li	s11,1
    2450:	00060463          	beqz	a2,2458 <core_init_matrix+0x4c>
    2454:	00060d93          	mv	s11,a2
    2458:	fff58593          	addi	a1,a1,-1
    245c:	ffc5fb13          	andi	s6,a1,-4
    2460:	004b0793          	addi	a5,s6,4
    2464:	00f12023          	sw	a5,0(sp)
    2468:	00000493          	li	s1,0
    246c:	14090e63          	beqz	s2,25c8 <core_init_matrix+0x1bc>
    2470:	00048413          	mv	s0,s1
    2474:	00148493          	addi	s1,s1,1
    2478:	00048593          	mv	a1,s1
    247c:	00048513          	mv	a0,s1
    2480:	2d8030ef          	jal	ra,5758 <__mulsi3>
    2484:	00351513          	slli	a0,a0,0x3
    2488:	ff2564e3          	bltu	a0,s2,2470 <core_init_matrix+0x64>
    248c:	00040593          	mv	a1,s0
    2490:	00040513          	mv	a0,s0
    2494:	2c4030ef          	jal	ra,5758 <__mulsi3>
    2498:	00012703          	lw	a4,0(sp)
    249c:	00151793          	slli	a5,a0,0x1
    24a0:	00f12423          	sw	a5,8(sp)
    24a4:	00812223          	sw	s0,4(sp)
    24a8:	00f70b33          	add	s6,a4,a5
    24ac:	0a040663          	beqz	s0,2558 <core_init_matrix+0x14c>
    24b0:	00012783          	lw	a5,0(sp)
    24b4:	000104b7          	lui	s1,0x10
    24b8:	00000a93          	li	s5,0
    24bc:	00000a13          	li	s4,0
    24c0:	00100993          	li	s3,1
    24c4:	41678933          	sub	s2,a5,s6
    24c8:	fff48493          	addi	s1,s1,-1 # ffff <_etext+0x9afb>
    24cc:	fff40c93          	addi	s9,s0,-1
    24d0:	001a9693          	slli	a3,s5,0x1
    24d4:	01668c33          	add	s8,a3,s6
    24d8:	00098d13          	mv	s10,s3
    24dc:	00000b93          	li	s7,0
    24e0:	000d0593          	mv	a1,s10
    24e4:	000d8513          	mv	a0,s11
    24e8:	270030ef          	jal	ra,5758 <__mulsi3>
    24ec:	41f55613          	srai	a2,a0,0x1f
    24f0:	01065713          	srli	a4,a2,0x10
    24f4:	00e50633          	add	a2,a0,a4
    24f8:	010d1793          	slli	a5,s10,0x10
    24fc:	00967633          	and	a2,a2,s1
    2500:	0107d793          	srli	a5,a5,0x10
    2504:	40e60db3          	sub	s11,a2,a4
    2508:	01b78733          	add	a4,a5,s11
    250c:	01071713          	slli	a4,a4,0x10
    2510:	01075713          	srli	a4,a4,0x10
    2514:	00f707b3          	add	a5,a4,a5
    2518:	00ec1023          	sh	a4,0(s8)
    251c:	0ff7f793          	andi	a5,a5,255
    2520:	01890733          	add	a4,s2,s8
    2524:	00f71023          	sh	a5,0(a4)
    2528:	001b8b93          	addi	s7,s7,1
    252c:	001d0d13          	addi	s10,s10,1
    2530:	002c0c13          	addi	s8,s8,2
    2534:	fa8be6e3          	bltu	s7,s0,24e0 <core_init_matrix+0xd4>
    2538:	00198993          	addi	s3,s3,1
    253c:	00000793          	li	a5,0
    2540:	00040463          	beqz	s0,2548 <core_init_matrix+0x13c>
    2544:	000c8793          	mv	a5,s9
    2548:	001a0a13          	addi	s4,s4,1
    254c:	013789b3          	add	s3,a5,s3
    2550:	008a8ab3          	add	s5,s5,s0
    2554:	f68a6ee3          	bltu	s4,s0,24d0 <core_init_matrix+0xc4>
    2558:	00812783          	lw	a5,8(sp)
    255c:	00c12703          	lw	a4,12(sp)
    2560:	00012683          	lw	a3,0(sp)
    2564:	00fb07b3          	add	a5,s6,a5
    2568:	fff78793          	addi	a5,a5,-1
    256c:	ffc7f793          	andi	a5,a5,-4
    2570:	00478793          	addi	a5,a5,4
    2574:	00f72623          	sw	a5,12(a4)
    2578:	00412783          	lw	a5,4(sp)
    257c:	04c12083          	lw	ra,76(sp)
    2580:	00040513          	mv	a0,s0
    2584:	04812403          	lw	s0,72(sp)
    2588:	01672423          	sw	s6,8(a4)
    258c:	00d72223          	sw	a3,4(a4)
    2590:	00f72023          	sw	a5,0(a4)
    2594:	04412483          	lw	s1,68(sp)
    2598:	04012903          	lw	s2,64(sp)
    259c:	03c12983          	lw	s3,60(sp)
    25a0:	03812a03          	lw	s4,56(sp)
    25a4:	03412a83          	lw	s5,52(sp)
    25a8:	03012b03          	lw	s6,48(sp)
    25ac:	02c12b83          	lw	s7,44(sp)
    25b0:	02812c03          	lw	s8,40(sp)
    25b4:	02412c83          	lw	s9,36(sp)
    25b8:	02012d03          	lw	s10,32(sp)
    25bc:	01c12d83          	lw	s11,28(sp)
    25c0:	05010113          	addi	sp,sp,80
    25c4:	00008067          	ret
    25c8:	fff00793          	li	a5,-1
    25cc:	00f12223          	sw	a5,4(sp)
    25d0:	00200793          	li	a5,2
    25d4:	006b0b13          	addi	s6,s6,6
    25d8:	fff00413          	li	s0,-1
    25dc:	00f12423          	sw	a5,8(sp)
    25e0:	ed1ff06f          	j	24b0 <core_init_matrix+0xa4>

000025e4 <matrix_sum>:
    25e4:	00050e93          	mv	t4,a0
    25e8:	08050663          	beqz	a0,2674 <matrix_sum+0x90>
    25ec:	40a00f33          	neg	t5,a0
    25f0:	00251893          	slli	a7,a0,0x2
    25f4:	011588b3          	add	a7,a1,a7
    25f8:	002f1f93          	slli	t6,t5,0x2
    25fc:	00000313          	li	t1,0
    2600:	00000513          	li	a0,0
    2604:	00000713          	li	a4,0
    2608:	00000593          	li	a1,0
    260c:	003f1f13          	slli	t5,t5,0x3
    2610:	011f8e33          	add	t3,t6,a7
    2614:	000e0793          	mv	a5,t3
    2618:	0180006f          	j	2630 <matrix_sum+0x4c>
    261c:	01081513          	slli	a0,a6,0x10
    2620:	00478793          	addi	a5,a5,4
    2624:	41055513          	srai	a0,a0,0x10
    2628:	00000593          	li	a1,0
    262c:	02f88c63          	beq	a7,a5,2664 <matrix_sum+0x80>
    2630:	00070693          	mv	a3,a4
    2634:	0007a703          	lw	a4,0(a5)
    2638:	01051513          	slli	a0,a0,0x10
    263c:	01055513          	srli	a0,a0,0x10
    2640:	00e6a6b3          	slt	a3,a3,a4
    2644:	00e585b3          	add	a1,a1,a4
    2648:	00a50813          	addi	a6,a0,10
    264c:	00d50533          	add	a0,a0,a3
    2650:	fcb646e3          	blt	a2,a1,261c <matrix_sum+0x38>
    2654:	01051513          	slli	a0,a0,0x10
    2658:	00478793          	addi	a5,a5,4
    265c:	41055513          	srai	a0,a0,0x10
    2660:	fcf898e3          	bne	a7,a5,2630 <matrix_sum+0x4c>
    2664:	00130313          	addi	t1,t1,1
    2668:	41ee08b3          	sub	a7,t3,t5
    266c:	fa6e92e3          	bne	t4,t1,2610 <matrix_sum+0x2c>
    2670:	00008067          	ret
    2674:	00000513          	li	a0,0
    2678:	00008067          	ret

0000267c <matrix_mul_const>:
    267c:	0c050a63          	beqz	a0,2750 <matrix_mul_const+0xd4>
    2680:	fd010113          	addi	sp,sp,-48
    2684:	03212023          	sw	s2,32(sp)
    2688:	01712623          	sw	s7,12(sp)
    268c:	00151913          	slli	s2,a0,0x1
    2690:	40a00bb3          	neg	s7,a0
    2694:	01312e23          	sw	s3,28(sp)
    2698:	01412c23          	sw	s4,24(sp)
    269c:	01612823          	sw	s6,16(sp)
    26a0:	01812423          	sw	s8,8(sp)
    26a4:	01912223          	sw	s9,4(sp)
    26a8:	01a12023          	sw	s10,0(sp)
    26ac:	001b9c93          	slli	s9,s7,0x1
    26b0:	02112623          	sw	ra,44(sp)
    26b4:	02812423          	sw	s0,40(sp)
    26b8:	02912223          	sw	s1,36(sp)
    26bc:	01512a23          	sw	s5,20(sp)
    26c0:	00050b13          	mv	s6,a0
    26c4:	00058c13          	mv	s8,a1
    26c8:	00068d13          	mv	s10,a3
    26cc:	01260933          	add	s2,a2,s2
    26d0:	00000a13          	li	s4,0
    26d4:	00000993          	li	s3,0
    26d8:	002b9b93          	slli	s7,s7,0x2
    26dc:	01990ab3          	add	s5,s2,s9
    26e0:	002a1493          	slli	s1,s4,0x2
    26e4:	009c04b3          	add	s1,s8,s1
    26e8:	000a8413          	mv	s0,s5
    26ec:	00041503          	lh	a0,0(s0)
    26f0:	000d0593          	mv	a1,s10
    26f4:	00240413          	addi	s0,s0,2
    26f8:	060030ef          	jal	ra,5758 <__mulsi3>
    26fc:	00a4a023          	sw	a0,0(s1)
    2700:	00448493          	addi	s1,s1,4
    2704:	fe8914e3          	bne	s2,s0,26ec <matrix_mul_const+0x70>
    2708:	00198993          	addi	s3,s3,1
    270c:	016a0a33          	add	s4,s4,s6
    2710:	417a8933          	sub	s2,s5,s7
    2714:	fd3b14e3          	bne	s6,s3,26dc <matrix_mul_const+0x60>
    2718:	02c12083          	lw	ra,44(sp)
    271c:	02812403          	lw	s0,40(sp)
    2720:	02412483          	lw	s1,36(sp)
    2724:	02012903          	lw	s2,32(sp)
    2728:	01c12983          	lw	s3,28(sp)
    272c:	01812a03          	lw	s4,24(sp)
    2730:	01412a83          	lw	s5,20(sp)
    2734:	01012b03          	lw	s6,16(sp)
    2738:	00c12b83          	lw	s7,12(sp)
    273c:	00812c03          	lw	s8,8(sp)
    2740:	00412c83          	lw	s9,4(sp)
    2744:	00012d03          	lw	s10,0(sp)
    2748:	03010113          	addi	sp,sp,48
    274c:	00008067          	ret
    2750:	00008067          	ret

00002754 <matrix_add_const>:
    2754:	04050663          	beqz	a0,27a0 <matrix_add_const+0x4c>
    2758:	40a008b3          	neg	a7,a0
    275c:	00151693          	slli	a3,a0,0x1
    2760:	01061613          	slli	a2,a2,0x10
    2764:	00d586b3          	add	a3,a1,a3
    2768:	00189313          	slli	t1,a7,0x1
    276c:	01065613          	srli	a2,a2,0x10
    2770:	00000593          	li	a1,0
    2774:	00289893          	slli	a7,a7,0x2
    2778:	00d30833          	add	a6,t1,a3
    277c:	00080793          	mv	a5,a6
    2780:	0007d703          	lhu	a4,0(a5)
    2784:	00278793          	addi	a5,a5,2
    2788:	00e60733          	add	a4,a2,a4
    278c:	fee79f23          	sh	a4,-2(a5)
    2790:	fef698e3          	bne	a3,a5,2780 <matrix_add_const+0x2c>
    2794:	00158593          	addi	a1,a1,1
    2798:	411806b3          	sub	a3,a6,a7
    279c:	fcb51ee3          	bne	a0,a1,2778 <matrix_add_const+0x24>
    27a0:	00008067          	ret

000027a4 <matrix_mul_vect>:
    27a4:	0c050463          	beqz	a0,286c <matrix_mul_vect+0xc8>
    27a8:	fd010113          	addi	sp,sp,-48
    27ac:	01312e23          	sw	s3,28(sp)
    27b0:	01612823          	sw	s6,16(sp)
    27b4:	00151993          	slli	s3,a0,0x1
    27b8:	00251b13          	slli	s6,a0,0x2
    27bc:	01412c23          	sw	s4,24(sp)
    27c0:	01512a23          	sw	s5,20(sp)
    27c4:	01712623          	sw	s7,12(sp)
    27c8:	01812423          	sw	s8,8(sp)
    27cc:	01912223          	sw	s9,4(sp)
    27d0:	02112623          	sw	ra,44(sp)
    27d4:	02812423          	sw	s0,40(sp)
    27d8:	02912223          	sw	s1,36(sp)
    27dc:	03212023          	sw	s2,32(sp)
    27e0:	00050a93          	mv	s5,a0
    27e4:	00060c13          	mv	s8,a2
    27e8:	00068b93          	mv	s7,a3
    27ec:	00058a13          	mv	s4,a1
    27f0:	01658b33          	add	s6,a1,s6
    27f4:	013689b3          	add	s3,a3,s3
    27f8:	00000c93          	li	s9,0
    27fc:	001c9493          	slli	s1,s9,0x1
    2800:	009c04b3          	add	s1,s8,s1
    2804:	000b8413          	mv	s0,s7
    2808:	00000913          	li	s2,0
    280c:	00041583          	lh	a1,0(s0)
    2810:	00049503          	lh	a0,0(s1)
    2814:	00240413          	addi	s0,s0,2
    2818:	00248493          	addi	s1,s1,2
    281c:	73d020ef          	jal	ra,5758 <__mulsi3>
    2820:	00a90933          	add	s2,s2,a0
    2824:	fe8994e3          	bne	s3,s0,280c <matrix_mul_vect+0x68>
    2828:	012a2023          	sw	s2,0(s4)
    282c:	004a0a13          	addi	s4,s4,4
    2830:	015c8cb3          	add	s9,s9,s5
    2834:	fd4b14e3          	bne	s6,s4,27fc <matrix_mul_vect+0x58>
    2838:	02c12083          	lw	ra,44(sp)
    283c:	02812403          	lw	s0,40(sp)
    2840:	02412483          	lw	s1,36(sp)
    2844:	02012903          	lw	s2,32(sp)
    2848:	01c12983          	lw	s3,28(sp)
    284c:	01812a03          	lw	s4,24(sp)
    2850:	01412a83          	lw	s5,20(sp)
    2854:	01012b03          	lw	s6,16(sp)
    2858:	00c12b83          	lw	s7,12(sp)
    285c:	00812c03          	lw	s8,8(sp)
    2860:	00412c83          	lw	s9,4(sp)
    2864:	03010113          	addi	sp,sp,48
    2868:	00008067          	ret
    286c:	00008067          	ret

00002870 <matrix_mul_matrix>:
    2870:	fb010113          	addi	sp,sp,-80
    2874:	04112623          	sw	ra,76(sp)
    2878:	04812423          	sw	s0,72(sp)
    287c:	04912223          	sw	s1,68(sp)
    2880:	05212023          	sw	s2,64(sp)
    2884:	03312e23          	sw	s3,60(sp)
    2888:	03412c23          	sw	s4,56(sp)
    288c:	03512a23          	sw	s5,52(sp)
    2890:	03612823          	sw	s6,48(sp)
    2894:	03712623          	sw	s7,44(sp)
    2898:	03812423          	sw	s8,40(sp)
    289c:	03912223          	sw	s9,36(sp)
    28a0:	03a12023          	sw	s10,32(sp)
    28a4:	01b12e23          	sw	s11,28(sp)
    28a8:	00b12423          	sw	a1,8(sp)
    28ac:	00d12623          	sw	a3,12(sp)
    28b0:	08050863          	beqz	a0,2940 <matrix_mul_matrix+0xd0>
    28b4:	00151493          	slli	s1,a0,0x1
    28b8:	00050b93          	mv	s7,a0
    28bc:	00060b13          	mv	s6,a2
    28c0:	00960933          	add	s2,a2,s1
    28c4:	00000c13          	li	s8,0
    28c8:	00000c93          	li	s9,0
    28cc:	00812783          	lw	a5,8(sp)
    28d0:	00c12a03          	lw	s4,12(sp)
    28d4:	002c1993          	slli	s3,s8,0x2
    28d8:	013789b3          	add	s3,a5,s3
    28dc:	00000a93          	li	s5,0
    28e0:	000a0d93          	mv	s11,s4
    28e4:	000b0413          	mv	s0,s6
    28e8:	00000d13          	li	s10,0
    28ec:	000d9583          	lh	a1,0(s11)
    28f0:	00041503          	lh	a0,0(s0)
    28f4:	00240413          	addi	s0,s0,2
    28f8:	009d8db3          	add	s11,s11,s1
    28fc:	65d020ef          	jal	ra,5758 <__mulsi3>
    2900:	00ad0d33          	add	s10,s10,a0
    2904:	fe8914e3          	bne	s2,s0,28ec <matrix_mul_matrix+0x7c>
    2908:	01a9a023          	sw	s10,0(s3)
    290c:	001a8793          	addi	a5,s5,1
    2910:	00498993          	addi	s3,s3,4
    2914:	002a0a13          	addi	s4,s4,2
    2918:	00fb8663          	beq	s7,a5,2924 <matrix_mul_matrix+0xb4>
    291c:	00078a93          	mv	s5,a5
    2920:	fc1ff06f          	j	28e0 <matrix_mul_matrix+0x70>
    2924:	001c8793          	addi	a5,s9,1
    2928:	009b0b33          	add	s6,s6,s1
    292c:	017c0c33          	add	s8,s8,s7
    2930:	00990933          	add	s2,s2,s1
    2934:	015c8663          	beq	s9,s5,2940 <matrix_mul_matrix+0xd0>
    2938:	00078c93          	mv	s9,a5
    293c:	f91ff06f          	j	28cc <matrix_mul_matrix+0x5c>
    2940:	04c12083          	lw	ra,76(sp)
    2944:	04812403          	lw	s0,72(sp)
    2948:	04412483          	lw	s1,68(sp)
    294c:	04012903          	lw	s2,64(sp)
    2950:	03c12983          	lw	s3,60(sp)
    2954:	03812a03          	lw	s4,56(sp)
    2958:	03412a83          	lw	s5,52(sp)
    295c:	03012b03          	lw	s6,48(sp)
    2960:	02c12b83          	lw	s7,44(sp)
    2964:	02812c03          	lw	s8,40(sp)
    2968:	02412c83          	lw	s9,36(sp)
    296c:	02012d03          	lw	s10,32(sp)
    2970:	01c12d83          	lw	s11,28(sp)
    2974:	05010113          	addi	sp,sp,80
    2978:	00008067          	ret

0000297c <matrix_mul_matrix_bitextract>:
    297c:	fb010113          	addi	sp,sp,-80
    2980:	04112623          	sw	ra,76(sp)
    2984:	04812423          	sw	s0,72(sp)
    2988:	04912223          	sw	s1,68(sp)
    298c:	05212023          	sw	s2,64(sp)
    2990:	03312e23          	sw	s3,60(sp)
    2994:	03412c23          	sw	s4,56(sp)
    2998:	03512a23          	sw	s5,52(sp)
    299c:	03612823          	sw	s6,48(sp)
    29a0:	03712623          	sw	s7,44(sp)
    29a4:	03812423          	sw	s8,40(sp)
    29a8:	03912223          	sw	s9,36(sp)
    29ac:	03a12023          	sw	s10,32(sp)
    29b0:	01b12e23          	sw	s11,28(sp)
    29b4:	00b12423          	sw	a1,8(sp)
    29b8:	00d12623          	sw	a3,12(sp)
    29bc:	0a050263          	beqz	a0,2a60 <matrix_mul_matrix_bitextract+0xe4>
    29c0:	00151413          	slli	s0,a0,0x1
    29c4:	00050b13          	mv	s6,a0
    29c8:	00060a93          	mv	s5,a2
    29cc:	008604b3          	add	s1,a2,s0
    29d0:	00000b93          	li	s7,0
    29d4:	00000c13          	li	s8,0
    29d8:	00812783          	lw	a5,8(sp)
    29dc:	00c12983          	lw	s3,12(sp)
    29e0:	002b9913          	slli	s2,s7,0x2
    29e4:	01278933          	add	s2,a5,s2
    29e8:	00000a13          	li	s4,0
    29ec:	00098d13          	mv	s10,s3
    29f0:	000a8d93          	mv	s11,s5
    29f4:	00000c93          	li	s9,0
    29f8:	000d1583          	lh	a1,0(s10)
    29fc:	000d9503          	lh	a0,0(s11)
    2a00:	002d8d93          	addi	s11,s11,2
    2a04:	008d0d33          	add	s10,s10,s0
    2a08:	551020ef          	jal	ra,5758 <__mulsi3>
    2a0c:	40255693          	srai	a3,a0,0x2
    2a10:	40555593          	srai	a1,a0,0x5
    2a14:	07f5f593          	andi	a1,a1,127
    2a18:	00f6f513          	andi	a0,a3,15
    2a1c:	53d020ef          	jal	ra,5758 <__mulsi3>
    2a20:	00ac8cb3          	add	s9,s9,a0
    2a24:	fdb49ae3          	bne	s1,s11,29f8 <matrix_mul_matrix_bitextract+0x7c>
    2a28:	01992023          	sw	s9,0(s2)
    2a2c:	001a0793          	addi	a5,s4,1
    2a30:	00490913          	addi	s2,s2,4
    2a34:	00298993          	addi	s3,s3,2
    2a38:	00fb0663          	beq	s6,a5,2a44 <matrix_mul_matrix_bitextract+0xc8>
    2a3c:	00078a13          	mv	s4,a5
    2a40:	fadff06f          	j	29ec <matrix_mul_matrix_bitextract+0x70>
    2a44:	001c0793          	addi	a5,s8,1
    2a48:	008a8ab3          	add	s5,s5,s0
    2a4c:	016b8bb3          	add	s7,s7,s6
    2a50:	008484b3          	add	s1,s1,s0
    2a54:	014c0663          	beq	s8,s4,2a60 <matrix_mul_matrix_bitextract+0xe4>
    2a58:	00078c13          	mv	s8,a5
    2a5c:	f7dff06f          	j	29d8 <matrix_mul_matrix_bitextract+0x5c>
    2a60:	04c12083          	lw	ra,76(sp)
    2a64:	04812403          	lw	s0,72(sp)
    2a68:	04412483          	lw	s1,68(sp)
    2a6c:	04012903          	lw	s2,64(sp)
    2a70:	03c12983          	lw	s3,60(sp)
    2a74:	03812a03          	lw	s4,56(sp)
    2a78:	03412a83          	lw	s5,52(sp)
    2a7c:	03012b03          	lw	s6,48(sp)
    2a80:	02c12b83          	lw	s7,44(sp)
    2a84:	02812c03          	lw	s8,40(sp)
    2a88:	02412c83          	lw	s9,36(sp)
    2a8c:	02012d03          	lw	s10,32(sp)
    2a90:	01c12d83          	lw	s11,28(sp)
    2a94:	05010113          	addi	sp,sp,80
    2a98:	00008067          	ret

00002a9c <matrix_test>:
    2a9c:	fa010113          	addi	sp,sp,-96
    2aa0:	04912a23          	sw	s1,84(sp)
    2aa4:	05212823          	sw	s2,80(sp)
    2aa8:	fffff837          	lui	a6,0xfffff
    2aac:	04112e23          	sw	ra,92(sp)
    2ab0:	04812c23          	sw	s0,88(sp)
    2ab4:	05312623          	sw	s3,76(sp)
    2ab8:	05412423          	sw	s4,72(sp)
    2abc:	05512223          	sw	s5,68(sp)
    2ac0:	05612023          	sw	s6,64(sp)
    2ac4:	03712e23          	sw	s7,60(sp)
    2ac8:	03812c23          	sw	s8,56(sp)
    2acc:	03912a23          	sw	s9,52(sp)
    2ad0:	03a12823          	sw	s10,48(sp)
    2ad4:	03b12623          	sw	s11,44(sp)
    2ad8:	00c12a23          	sw	a2,20(sp)
    2adc:	00d12c23          	sw	a3,24(sp)
    2ae0:	00058493          	mv	s1,a1
    2ae4:	01076933          	or	s2,a4,a6
    2ae8:	3a050a63          	beqz	a0,2e9c <matrix_test+0x400>
    2aec:	00151993          	slli	s3,a0,0x1
    2af0:	00050893          	mv	a7,a0
    2af4:	40a00533          	neg	a0,a0
    2af8:	00151793          	slli	a5,a0,0x1
    2afc:	00c989b3          	add	s3,s3,a2
    2b00:	01071413          	slli	s0,a4,0x10
    2b04:	00070d13          	mv	s10,a4
    2b08:	01045413          	srli	s0,s0,0x10
    2b0c:	00f12623          	sw	a5,12(sp)
    2b10:	00098693          	mv	a3,s3
    2b14:	00000a13          	li	s4,0
    2b18:	00251513          	slli	a0,a0,0x2
    2b1c:	00c12783          	lw	a5,12(sp)
    2b20:	00d78633          	add	a2,a5,a3
    2b24:	00060793          	mv	a5,a2
    2b28:	0007d703          	lhu	a4,0(a5)
    2b2c:	00278793          	addi	a5,a5,2
    2b30:	00e40733          	add	a4,s0,a4
    2b34:	fee79f23          	sh	a4,-2(a5)
    2b38:	fef698e3          	bne	a3,a5,2b28 <matrix_test+0x8c>
    2b3c:	001a0a93          	addi	s5,s4,1
    2b40:	40a606b3          	sub	a3,a2,a0
    2b44:	01588663          	beq	a7,s5,2b50 <matrix_test+0xb4>
    2b48:	000a8a13          	mv	s4,s5
    2b4c:	fd1ff06f          	j	2b1c <matrix_test+0x80>
    2b50:	415007b3          	neg	a5,s5
    2b54:	00f12e23          	sw	a5,28(sp)
    2b58:	00000b93          	li	s7,0
    2b5c:	00012823          	sw	zero,16(sp)
    2b60:	00279b13          	slli	s6,a5,0x2
    2b64:	00c12783          	lw	a5,12(sp)
    2b68:	002b9693          	slli	a3,s7,0x2
    2b6c:	00968cb3          	add	s9,a3,s1
    2b70:	01378c33          	add	s8,a5,s3
    2b74:	000c0d93          	mv	s11,s8
    2b78:	000d9503          	lh	a0,0(s11)
    2b7c:	000d0593          	mv	a1,s10
    2b80:	002d8d93          	addi	s11,s11,2
    2b84:	3d5020ef          	jal	ra,5758 <__mulsi3>
    2b88:	00aca023          	sw	a0,0(s9)
    2b8c:	004c8c93          	addi	s9,s9,4
    2b90:	ff3d94e3          	bne	s11,s3,2b78 <matrix_test+0xdc>
    2b94:	01012783          	lw	a5,16(sp)
    2b98:	015b8bb3          	add	s7,s7,s5
    2b9c:	416c09b3          	sub	s3,s8,s6
    2ba0:	00178713          	addi	a4,a5,1
    2ba4:	01478663          	beq	a5,s4,2bb0 <matrix_test+0x114>
    2ba8:	00e12823          	sw	a4,16(sp)
    2bac:	fb9ff06f          	j	2b64 <matrix_test+0xc8>
    2bb0:	01c12783          	lw	a5,28(sp)
    2bb4:	002a9993          	slli	s3,s5,0x2
    2bb8:	013489b3          	add	s3,s1,s3
    2bbc:	00098313          	mv	t1,s3
    2bc0:	00000513          	li	a0,0
    2bc4:	00000693          	li	a3,0
    2bc8:	00000593          	li	a1,0
    2bcc:	00000e93          	li	t4,0
    2bd0:	00379d13          	slli	s10,a5,0x3
    2bd4:	01630e33          	add	t3,t1,s6
    2bd8:	000e0713          	mv	a4,t3
    2bdc:	0180006f          	j	2bf4 <matrix_test+0x158>
    2be0:	01089513          	slli	a0,a7,0x10
    2be4:	00470713          	addi	a4,a4,4
    2be8:	41055513          	srai	a0,a0,0x10
    2bec:	00000593          	li	a1,0
    2bf0:	02e30c63          	beq	t1,a4,2c28 <matrix_test+0x18c>
    2bf4:	00068613          	mv	a2,a3
    2bf8:	00072683          	lw	a3,0(a4)
    2bfc:	01051513          	slli	a0,a0,0x10
    2c00:	01055513          	srli	a0,a0,0x10
    2c04:	00d62633          	slt	a2,a2,a3
    2c08:	00d585b3          	add	a1,a1,a3
    2c0c:	00a50893          	addi	a7,a0,10
    2c10:	00c50533          	add	a0,a0,a2
    2c14:	fcb946e3          	blt	s2,a1,2be0 <matrix_test+0x144>
    2c18:	01051513          	slli	a0,a0,0x10
    2c1c:	00470713          	addi	a4,a4,4
    2c20:	41055513          	srai	a0,a0,0x10
    2c24:	fce318e3          	bne	t1,a4,2bf4 <matrix_test+0x158>
    2c28:	001e8713          	addi	a4,t4,1
    2c2c:	41ae0333          	sub	t1,t3,s10
    2c30:	014e8663          	beq	t4,s4,2c3c <matrix_test+0x1a0>
    2c34:	00070e93          	mv	t4,a4
    2c38:	f9dff06f          	j	2bd4 <matrix_test+0x138>
    2c3c:	00000593          	li	a1,0
    2c40:	fb8ff0ef          	jal	ra,23f8 <crc16>
    2c44:	01812683          	lw	a3,24(sp)
    2c48:	01412603          	lw	a2,20(sp)
    2c4c:	00048593          	mv	a1,s1
    2c50:	00050b93          	mv	s7,a0
    2c54:	000a8513          	mv	a0,s5
    2c58:	b4dff0ef          	jal	ra,27a4 <matrix_mul_vect>
    2c5c:	00000513          	li	a0,0
    2c60:	00000693          	li	a3,0
    2c64:	00000593          	li	a1,0
    2c68:	00000e13          	li	t3,0
    2c6c:	013b0333          	add	t1,s6,s3
    2c70:	00030713          	mv	a4,t1
    2c74:	0180006f          	j	2c8c <matrix_test+0x1f0>
    2c78:	01089513          	slli	a0,a7,0x10
    2c7c:	00470713          	addi	a4,a4,4
    2c80:	41055513          	srai	a0,a0,0x10
    2c84:	00000593          	li	a1,0
    2c88:	02e98c63          	beq	s3,a4,2cc0 <matrix_test+0x224>
    2c8c:	00068613          	mv	a2,a3
    2c90:	00072683          	lw	a3,0(a4)
    2c94:	01051513          	slli	a0,a0,0x10
    2c98:	01055513          	srli	a0,a0,0x10
    2c9c:	00d62633          	slt	a2,a2,a3
    2ca0:	00d585b3          	add	a1,a1,a3
    2ca4:	00a50893          	addi	a7,a0,10
    2ca8:	00c50533          	add	a0,a0,a2
    2cac:	fcb946e3          	blt	s2,a1,2c78 <matrix_test+0x1dc>
    2cb0:	01051513          	slli	a0,a0,0x10
    2cb4:	00470713          	addi	a4,a4,4
    2cb8:	41055513          	srai	a0,a0,0x10
    2cbc:	fce998e3          	bne	s3,a4,2c8c <matrix_test+0x1f0>
    2cc0:	001e0713          	addi	a4,t3,1
    2cc4:	41a309b3          	sub	s3,t1,s10
    2cc8:	014e0663          	beq	t3,s4,2cd4 <matrix_test+0x238>
    2ccc:	00070e13          	mv	t3,a4
    2cd0:	f9dff06f          	j	2c6c <matrix_test+0x1d0>
    2cd4:	000b8593          	mv	a1,s7
    2cd8:	f20ff0ef          	jal	ra,23f8 <crc16>
    2cdc:	01412603          	lw	a2,20(sp)
    2ce0:	01812683          	lw	a3,24(sp)
    2ce4:	00050993          	mv	s3,a0
    2ce8:	00048593          	mv	a1,s1
    2cec:	000a8513          	mv	a0,s5
    2cf0:	b81ff0ef          	jal	ra,2870 <matrix_mul_matrix>
    2cf4:	00000e93          	li	t4,0
    2cf8:	00000513          	li	a0,0
    2cfc:	00000713          	li	a4,0
    2d00:	00000613          	li	a2,0
    2d04:	00000e13          	li	t3,0
    2d08:	002e9593          	slli	a1,t4,0x2
    2d0c:	00b485b3          	add	a1,s1,a1
    2d10:	00000893          	li	a7,0
    2d14:	01c0006f          	j	2d30 <matrix_test+0x294>
    2d18:	01031513          	slli	a0,t1,0x10
    2d1c:	00188893          	addi	a7,a7,1
    2d20:	41055513          	srai	a0,a0,0x10
    2d24:	00000613          	li	a2,0
    2d28:	00458593          	addi	a1,a1,4
    2d2c:	0358fe63          	bgeu	a7,s5,2d68 <matrix_test+0x2cc>
    2d30:	00070693          	mv	a3,a4
    2d34:	0005a703          	lw	a4,0(a1)
    2d38:	01051513          	slli	a0,a0,0x10
    2d3c:	01055513          	srli	a0,a0,0x10
    2d40:	00e6a6b3          	slt	a3,a3,a4
    2d44:	00e60633          	add	a2,a2,a4
    2d48:	00a50313          	addi	t1,a0,10
    2d4c:	00d50533          	add	a0,a0,a3
    2d50:	fcc944e3          	blt	s2,a2,2d18 <matrix_test+0x27c>
    2d54:	01051513          	slli	a0,a0,0x10
    2d58:	00188893          	addi	a7,a7,1
    2d5c:	41055513          	srai	a0,a0,0x10
    2d60:	00458593          	addi	a1,a1,4
    2d64:	fd58e6e3          	bltu	a7,s5,2d30 <matrix_test+0x294>
    2d68:	001e0e13          	addi	t3,t3,1
    2d6c:	015e8eb3          	add	t4,t4,s5
    2d70:	f95e6ce3          	bltu	t3,s5,2d08 <matrix_test+0x26c>
    2d74:	00098593          	mv	a1,s3
    2d78:	e80ff0ef          	jal	ra,23f8 <crc16>
    2d7c:	01412603          	lw	a2,20(sp)
    2d80:	01812683          	lw	a3,24(sp)
    2d84:	00050993          	mv	s3,a0
    2d88:	00048593          	mv	a1,s1
    2d8c:	000a8513          	mv	a0,s5
    2d90:	bedff0ef          	jal	ra,297c <matrix_mul_matrix_bitextract>
    2d94:	00000e93          	li	t4,0
    2d98:	00000513          	li	a0,0
    2d9c:	00000713          	li	a4,0
    2da0:	00000613          	li	a2,0
    2da4:	00000e13          	li	t3,0
    2da8:	002e9593          	slli	a1,t4,0x2
    2dac:	00b485b3          	add	a1,s1,a1
    2db0:	00000893          	li	a7,0
    2db4:	01c0006f          	j	2dd0 <matrix_test+0x334>
    2db8:	01031513          	slli	a0,t1,0x10
    2dbc:	00188893          	addi	a7,a7,1
    2dc0:	41055513          	srai	a0,a0,0x10
    2dc4:	00000613          	li	a2,0
    2dc8:	00458593          	addi	a1,a1,4
    2dcc:	0358fe63          	bgeu	a7,s5,2e08 <matrix_test+0x36c>
    2dd0:	00070693          	mv	a3,a4
    2dd4:	0005a703          	lw	a4,0(a1)
    2dd8:	01051513          	slli	a0,a0,0x10
    2ddc:	01055513          	srli	a0,a0,0x10
    2de0:	00e6a6b3          	slt	a3,a3,a4
    2de4:	00e60633          	add	a2,a2,a4
    2de8:	00a50313          	addi	t1,a0,10
    2dec:	00d50533          	add	a0,a0,a3
    2df0:	fcc944e3          	blt	s2,a2,2db8 <matrix_test+0x31c>
    2df4:	01051513          	slli	a0,a0,0x10
    2df8:	00188893          	addi	a7,a7,1
    2dfc:	41055513          	srai	a0,a0,0x10
    2e00:	00458593          	addi	a1,a1,4
    2e04:	fd58e6e3          	bltu	a7,s5,2dd0 <matrix_test+0x334>
    2e08:	001e0e13          	addi	t3,t3,1
    2e0c:	015e8eb3          	add	t4,t4,s5
    2e10:	f95e6ce3          	bltu	t3,s5,2da8 <matrix_test+0x30c>
    2e14:	00098593          	mv	a1,s3
    2e18:	de0ff0ef          	jal	ra,23f8 <crc16>
    2e1c:	00000813          	li	a6,0
    2e20:	00000593          	li	a1,0
    2e24:	01412783          	lw	a5,20(sp)
    2e28:	00181713          	slli	a4,a6,0x1
    2e2c:	00000613          	li	a2,0
    2e30:	00e78733          	add	a4,a5,a4
    2e34:	00075683          	lhu	a3,0(a4)
    2e38:	00270713          	addi	a4,a4,2
    2e3c:	00160613          	addi	a2,a2,1
    2e40:	408686b3          	sub	a3,a3,s0
    2e44:	fed71f23          	sh	a3,-2(a4)
    2e48:	ff5666e3          	bltu	a2,s5,2e34 <matrix_test+0x398>
    2e4c:	00158593          	addi	a1,a1,1
    2e50:	01580833          	add	a6,a6,s5
    2e54:	fd55e8e3          	bltu	a1,s5,2e24 <matrix_test+0x388>
    2e58:	05c12083          	lw	ra,92(sp)
    2e5c:	05812403          	lw	s0,88(sp)
    2e60:	01051513          	slli	a0,a0,0x10
    2e64:	05412483          	lw	s1,84(sp)
    2e68:	05012903          	lw	s2,80(sp)
    2e6c:	04c12983          	lw	s3,76(sp)
    2e70:	04812a03          	lw	s4,72(sp)
    2e74:	04412a83          	lw	s5,68(sp)
    2e78:	04012b03          	lw	s6,64(sp)
    2e7c:	03c12b83          	lw	s7,60(sp)
    2e80:	03812c03          	lw	s8,56(sp)
    2e84:	03412c83          	lw	s9,52(sp)
    2e88:	03012d03          	lw	s10,48(sp)
    2e8c:	02c12d83          	lw	s11,44(sp)
    2e90:	41055513          	srai	a0,a0,0x10
    2e94:	06010113          	addi	sp,sp,96
    2e98:	00008067          	ret
    2e9c:	00000593          	li	a1,0
    2ea0:	d58ff0ef          	jal	ra,23f8 <crc16>
    2ea4:	01812983          	lw	s3,24(sp)
    2ea8:	01412903          	lw	s2,20(sp)
    2eac:	00050413          	mv	s0,a0
    2eb0:	00098693          	mv	a3,s3
    2eb4:	00090613          	mv	a2,s2
    2eb8:	00048593          	mv	a1,s1
    2ebc:	00000513          	li	a0,0
    2ec0:	8e5ff0ef          	jal	ra,27a4 <matrix_mul_vect>
    2ec4:	00040593          	mv	a1,s0
    2ec8:	00000513          	li	a0,0
    2ecc:	d2cff0ef          	jal	ra,23f8 <crc16>
    2ed0:	00098693          	mv	a3,s3
    2ed4:	00090613          	mv	a2,s2
    2ed8:	00050413          	mv	s0,a0
    2edc:	00048593          	mv	a1,s1
    2ee0:	00000513          	li	a0,0
    2ee4:	98dff0ef          	jal	ra,2870 <matrix_mul_matrix>
    2ee8:	00040593          	mv	a1,s0
    2eec:	00000513          	li	a0,0
    2ef0:	d08ff0ef          	jal	ra,23f8 <crc16>
    2ef4:	00050413          	mv	s0,a0
    2ef8:	00048593          	mv	a1,s1
    2efc:	00098693          	mv	a3,s3
    2f00:	00090613          	mv	a2,s2
    2f04:	00000513          	li	a0,0
    2f08:	a75ff0ef          	jal	ra,297c <matrix_mul_matrix_bitextract>
    2f0c:	00040593          	mv	a1,s0
    2f10:	00000513          	li	a0,0
    2f14:	ce4ff0ef          	jal	ra,23f8 <crc16>
    2f18:	f41ff06f          	j	2e58 <matrix_test+0x3bc>

00002f1c <core_bench_matrix>:
    2f1c:	ff010113          	addi	sp,sp,-16
    2f20:	00812423          	sw	s0,8(sp)
    2f24:	00852683          	lw	a3,8(a0)
    2f28:	00060413          	mv	s0,a2
    2f2c:	00058713          	mv	a4,a1
    2f30:	00452603          	lw	a2,4(a0)
    2f34:	00c52583          	lw	a1,12(a0)
    2f38:	00052503          	lw	a0,0(a0)
    2f3c:	00112623          	sw	ra,12(sp)
    2f40:	b5dff0ef          	jal	ra,2a9c <matrix_test>
    2f44:	00040593          	mv	a1,s0
    2f48:	00812403          	lw	s0,8(sp)
    2f4c:	00c12083          	lw	ra,12(sp)
    2f50:	01010113          	addi	sp,sp,16
    2f54:	ca4ff06f          	j	23f8 <crc16>

00002f58 <iterate>:
    2f58:	ff010113          	addi	sp,sp,-16
    2f5c:	01212023          	sw	s2,0(sp)
    2f60:	01c52903          	lw	s2,28(a0)
    2f64:	00112623          	sw	ra,12(sp)
    2f68:	00812423          	sw	s0,8(sp)
    2f6c:	00912223          	sw	s1,4(sp)
    2f70:	02052c23          	sw	zero,56(a0)
    2f74:	02052e23          	sw	zero,60(a0)
    2f78:	04090663          	beqz	s2,2fc4 <iterate+0x6c>
    2f7c:	00050413          	mv	s0,a0
    2f80:	00000493          	li	s1,0
    2f84:	00100593          	li	a1,1
    2f88:	00040513          	mv	a0,s0
    2f8c:	370010ef          	jal	ra,42fc <core_bench_list>
    2f90:	03845583          	lhu	a1,56(s0)
    2f94:	bacff0ef          	jal	ra,2340 <crcu16>
    2f98:	fff00593          	li	a1,-1
    2f9c:	02a41c23          	sh	a0,56(s0)
    2fa0:	00040513          	mv	a0,s0
    2fa4:	358010ef          	jal	ra,42fc <core_bench_list>
    2fa8:	03845583          	lhu	a1,56(s0)
    2fac:	b94ff0ef          	jal	ra,2340 <crcu16>
    2fb0:	02a41c23          	sh	a0,56(s0)
    2fb4:	00049463          	bnez	s1,2fbc <iterate+0x64>
    2fb8:	02a41d23          	sh	a0,58(s0)
    2fbc:	00148493          	addi	s1,s1,1
    2fc0:	fc9912e3          	bne	s2,s1,2f84 <iterate+0x2c>
    2fc4:	00c12083          	lw	ra,12(sp)
    2fc8:	00812403          	lw	s0,8(sp)
    2fcc:	00412483          	lw	s1,4(sp)
    2fd0:	00012903          	lw	s2,0(sp)
    2fd4:	00000513          	li	a0,0
    2fd8:	01010113          	addi	sp,sp,16
    2fdc:	00008067          	ret

00002fe0 <coremark>:
    2fe0:	f7010113          	addi	sp,sp,-144
    2fe4:	08112623          	sw	ra,140(sp)
    2fe8:	08812423          	sw	s0,136(sp)
    2fec:	08912223          	sw	s1,132(sp)
    2ff0:	09212023          	sw	s2,128(sp)
    2ff4:	07312e23          	sw	s3,124(sp)
    2ff8:	07412c23          	sw	s4,120(sp)
    2ffc:	07512a23          	sw	s5,116(sp)
    3000:	07612823          	sw	s6,112(sp)
    3004:	07712623          	sw	s7,108(sp)
    3008:	07812423          	sw	s8,104(sp)
    300c:	07912223          	sw	s9,100(sp)
    3010:	07a12023          	sw	s10,96(sp)
    3014:	05b12e23          	sw	s11,92(sp)
    3018:	00012223          	sw	zero,4(sp)
    301c:	0c9010ef          	jal	ra,48e4 <ioe_init>
    3020:	3e800593          	li	a1,1000
    3024:	000fd517          	auipc	a0,0xfd
    3028:	5f050513          	addi	a0,a0,1520 # 100614 <CSWTCH.57+0x54>
    302c:	469020ef          	jal	ra,5c94 <printf>
    3030:	00810613          	addi	a2,sp,8
    3034:	00410593          	addi	a1,sp,4
    3038:	04e10513          	addi	a0,sp,78
    303c:	b4cfd0ef          	jal	ra,388 <portable_init>
    3040:	00100513          	li	a0,1
    3044:	a50ff0ef          	jal	ra,2294 <get_seed_32>
    3048:	00050793          	mv	a5,a0
    304c:	00200513          	li	a0,2
    3050:	00f11623          	sh	a5,12(sp)
    3054:	a40ff0ef          	jal	ra,2294 <get_seed_32>
    3058:	00050793          	mv	a5,a0
    305c:	00300513          	li	a0,3
    3060:	00f11723          	sh	a5,14(sp)
    3064:	a30ff0ef          	jal	ra,2294 <get_seed_32>
    3068:	00050793          	mv	a5,a0
    306c:	00400513          	li	a0,4
    3070:	00f11823          	sh	a5,16(sp)
    3074:	a20ff0ef          	jal	ra,2294 <get_seed_32>
    3078:	00050793          	mv	a5,a0
    307c:	00500513          	li	a0,5
    3080:	02f12423          	sw	a5,40(sp)
    3084:	a10ff0ef          	jal	ra,2294 <get_seed_32>
    3088:	5a050a63          	beqz	a0,363c <coremark+0x65c>
    308c:	00157593          	andi	a1,a0,1
    3090:	00050413          	mv	s0,a0
    3094:	02a12623          	sw	a0,44(sp)
    3098:	00058a93          	mv	s5,a1
    309c:	00c12783          	lw	a5,12(sp)
    30a0:	56079a63          	bnez	a5,3614 <coremark+0x634>
    30a4:	01011783          	lh	a5,16(sp)
    30a8:	58078463          	beqz	a5,3630 <coremark+0x650>
    30ac:	0010ea17          	auipc	s4,0x10e
    30b0:	634a0a13          	addi	s4,s4,1588 # 1116e0 <static_memblk>
    30b4:	00247493          	andi	s1,s0,2
    30b8:	01059593          	slli	a1,a1,0x10
    30bc:	0105d593          	srli	a1,a1,0x10
    30c0:	00903733          	snez	a4,s1
    30c4:	01412a23          	sw	s4,20(sp)
    30c8:	04011623          	sh	zero,76(sp)
    30cc:	00447793          	andi	a5,s0,4
    30d0:	00e585b3          	add	a1,a1,a4
    30d4:	00078863          	beqz	a5,30e4 <coremark+0x104>
    30d8:	00158593          	addi	a1,a1,1
    30dc:	01059593          	slli	a1,a1,0x10
    30e0:	0105d593          	srli	a1,a1,0x10
    30e4:	7d000513          	li	a0,2000
    30e8:	5c4020ef          	jal	ra,56ac <__hidden___udivsi3>
    30ec:	00050993          	mv	s3,a0
    30f0:	02a12223          	sw	a0,36(sp)
    30f4:	00000913          	li	s2,0
    30f8:	00000b13          	li	s6,0
    30fc:	00100c93          	li	s9,1
    3100:	00300c13          	li	s8,3
    3104:	012c97b3          	sll	a5,s9,s2
    3108:	0087f7b3          	and	a5,a5,s0
    310c:	4c079063          	bnez	a5,35cc <coremark+0x5ec>
    3110:	00190913          	addi	s2,s2,1
    3114:	ff8918e3          	bne	s2,s8,3104 <coremark+0x124>
    3118:	240a9463          	bnez	s5,3360 <coremark+0x380>
    311c:	26049263          	bnez	s1,3380 <coremark+0x3a0>
    3120:	00447413          	andi	s0,s0,4
    3124:	00040a63          	beqz	s0,3138 <coremark+0x158>
    3128:	02012603          	lw	a2,32(sp)
    312c:	00c11583          	lh	a1,12(sp)
    3130:	02412503          	lw	a0,36(sp)
    3134:	740000ef          	jal	ra,3874 <core_init_state>
    3138:	02812783          	lw	a5,40(sp)
    313c:	04079e63          	bnez	a5,3198 <coremark+0x1b8>
    3140:	00100713          	li	a4,1
    3144:	0080006f          	j	314c <coremark+0x16c>
    3148:	02812703          	lw	a4,40(sp)
    314c:	00271793          	slli	a5,a4,0x2
    3150:	00e787b3          	add	a5,a5,a4
    3154:	00179793          	slli	a5,a5,0x1
    3158:	02f12423          	sw	a5,40(sp)
    315c:	998fd0ef          	jal	ra,2f4 <start_time>
    3160:	00c10513          	addi	a0,sp,12
    3164:	df5ff0ef          	jal	ra,2f58 <iterate>
    3168:	9c8fd0ef          	jal	ra,330 <stop_time>
    316c:	a00fd0ef          	jal	ra,36c <get_time>
    3170:	a14fd0ef          	jal	ra,384 <time_in_secs>
    3174:	fc050ae3          	beqz	a0,3148 <coremark+0x168>
    3178:	00050593          	mv	a1,a0
    317c:	00a00513          	li	a0,10
    3180:	52c020ef          	jal	ra,56ac <__hidden___udivsi3>
    3184:	00050593          	mv	a1,a0
    3188:	02812503          	lw	a0,40(sp)
    318c:	00158593          	addi	a1,a1,1
    3190:	5c8020ef          	jal	ra,5758 <__mulsi3>
    3194:	02a12423          	sw	a0,40(sp)
    3198:	95cfd0ef          	jal	ra,2f4 <start_time>
    319c:	00c10513          	addi	a0,sp,12
    31a0:	db9ff0ef          	jal	ra,2f58 <iterate>
    31a4:	98cfd0ef          	jal	ra,330 <stop_time>
    31a8:	9c4fd0ef          	jal	ra,36c <get_time>
    31ac:	00050913          	mv	s2,a0
    31b0:	00c11503          	lh	a0,12(sp)
    31b4:	00000593          	li	a1,0
    31b8:	a40ff0ef          	jal	ra,23f8 <crc16>
    31bc:	00050593          	mv	a1,a0
    31c0:	00e11503          	lh	a0,14(sp)
    31c4:	a34ff0ef          	jal	ra,23f8 <crc16>
    31c8:	00050593          	mv	a1,a0
    31cc:	01011503          	lh	a0,16(sp)
    31d0:	a28ff0ef          	jal	ra,23f8 <crc16>
    31d4:	00050593          	mv	a1,a0
    31d8:	02411503          	lh	a0,36(sp)
    31dc:	a1cff0ef          	jal	ra,23f8 <crc16>
    31e0:	000087b7          	lui	a5,0x8
    31e4:	b0578793          	addi	a5,a5,-1275 # 7b05 <_etext+0x1601>
    31e8:	00050993          	mv	s3,a0
    31ec:	54f50663          	beq	a0,a5,3738 <coremark+0x758>
    31f0:	1aa7ec63          	bltu	a5,a0,33a8 <coremark+0x3c8>
    31f4:	000027b7          	lui	a5,0x2
    31f8:	8f278793          	addi	a5,a5,-1806 # 18f2 <typinggame+0x6>
    31fc:	50f50a63          	beq	a0,a5,3710 <coremark+0x730>
    3200:	000057b7          	lui	a5,0x5
    3204:	eaf78793          	addi	a5,a5,-337 # 4eaf <getchar+0x29b>
    3208:	1cf51663          	bne	a0,a5,33d4 <coremark+0x3f4>
    320c:	000fd517          	auipc	a0,0xfd
    3210:	48450513          	addi	a0,a0,1156 # 100690 <CSWTCH.57+0xd0>
    3214:	7a5020ef          	jal	ra,61b8 <puts>
    3218:	00200c93          	li	s9,2
    321c:	000fe497          	auipc	s1,0xfe
    3220:	2d048493          	addi	s1,s1,720 # 1014ec <default_num_contexts>
    3224:	0004a783          	lw	a5,0(s1)
    3228:	00000d13          	li	s10,0
    322c:	00000c13          	li	s8,0
    3230:	50078e63          	beqz	a5,374c <coremark+0x76c>
    3234:	001c9c93          	slli	s9,s9,0x1
    3238:	000fd797          	auipc	a5,0xfd
    323c:	79878793          	addi	a5,a5,1944 # 1009d0 <list_known_crc>
    3240:	01978cb3          	add	s9,a5,s9
    3244:	000fdb17          	auipc	s6,0xfd
    3248:	4d4b0b13          	addi	s6,s6,1236 # 100718 <CSWTCH.57+0x158>
    324c:	000fda97          	auipc	s5,0xfd
    3250:	4fca8a93          	addi	s5,s5,1276 # 100748 <CSWTCH.57+0x188>
    3254:	000fda17          	auipc	s4,0xfd
    3258:	528a0a13          	addi	s4,s4,1320 # 10077c <CSWTCH.57+0x1bc>
    325c:	0580006f          	j	32b4 <coremark+0x2d4>
    3260:	ffa45603          	lhu	a2,-6(s0)
    3264:	018cd683          	lhu	a3,24(s9)
    3268:	0ed60863          	beq	a2,a3,3358 <coremark+0x378>
    326c:	000c0593          	mv	a1,s8
    3270:	000a0513          	mv	a0,s4
    3274:	221020ef          	jal	ra,5c94 <printf>
    3278:	ffc45783          	lhu	a5,-4(s0)
    327c:	00178793          	addi	a5,a5,1
    3280:	01079793          	slli	a5,a5,0x10
    3284:	0107d793          	srli	a5,a5,0x10
    3288:	fef41e23          	sh	a5,-4(s0)
    328c:	001c0c13          	addi	s8,s8,1
    3290:	0004a703          	lw	a4,0(s1)
    3294:	01a787b3          	add	a5,a5,s10
    3298:	010c1c13          	slli	s8,s8,0x10
    329c:	01079413          	slli	s0,a5,0x10
    32a0:	01079d13          	slli	s10,a5,0x10
    32a4:	010c5c13          	srli	s8,s8,0x10
    32a8:	01045413          	srli	s0,s0,0x10
    32ac:	410d5d13          	srai	s10,s10,0x10
    32b0:	12ec7a63          	bgeu	s8,a4,33e4 <coremark+0x404>
    32b4:	004c1d93          	slli	s11,s8,0x4
    32b8:	018d8433          	add	s0,s11,s8
    32bc:	05010793          	addi	a5,sp,80
    32c0:	00241413          	slli	s0,s0,0x2
    32c4:	00878433          	add	s0,a5,s0
    32c8:	fdc42783          	lw	a5,-36(s0)
    32cc:	fe041e23          	sh	zero,-4(s0)
    32d0:	0017f793          	andi	a5,a5,1
    32d4:	02078463          	beqz	a5,32fc <coremark+0x31c>
    32d8:	ff645603          	lhu	a2,-10(s0)
    32dc:	000cd683          	lhu	a3,0(s9)
    32e0:	00d60e63          	beq	a2,a3,32fc <coremark+0x31c>
    32e4:	000c0593          	mv	a1,s8
    32e8:	000b0513          	mv	a0,s6
    32ec:	1a9020ef          	jal	ra,5c94 <printf>
    32f0:	ffc45783          	lhu	a5,-4(s0)
    32f4:	00178793          	addi	a5,a5,1
    32f8:	fef41e23          	sh	a5,-4(s0)
    32fc:	018d8bb3          	add	s7,s11,s8
    3300:	05010793          	addi	a5,sp,80
    3304:	002b9b93          	slli	s7,s7,0x2
    3308:	01778bb3          	add	s7,a5,s7
    330c:	fdcba703          	lw	a4,-36(s7)
    3310:	00277793          	andi	a5,a4,2
    3314:	02078663          	beqz	a5,3340 <coremark+0x360>
    3318:	ff8bd603          	lhu	a2,-8(s7)
    331c:	00ccd683          	lhu	a3,12(s9)
    3320:	02d60063          	beq	a2,a3,3340 <coremark+0x360>
    3324:	000c0593          	mv	a1,s8
    3328:	000a8513          	mv	a0,s5
    332c:	169020ef          	jal	ra,5c94 <printf>
    3330:	ffcbd783          	lhu	a5,-4(s7)
    3334:	fdcba703          	lw	a4,-36(s7)
    3338:	00178793          	addi	a5,a5,1
    333c:	fefb9e23          	sh	a5,-4(s7)
    3340:	018d8433          	add	s0,s11,s8
    3344:	00241413          	slli	s0,s0,0x2
    3348:	05010793          	addi	a5,sp,80
    334c:	00477713          	andi	a4,a4,4
    3350:	00878433          	add	s0,a5,s0
    3354:	f00716e3          	bnez	a4,3260 <coremark+0x280>
    3358:	ffc45783          	lhu	a5,-4(s0)
    335c:	f31ff06f          	j	328c <coremark+0x2ac>
    3360:	00c11603          	lh	a2,12(sp)
    3364:	01812583          	lw	a1,24(sp)
    3368:	00098513          	mv	a0,s3
    336c:	1f8010ef          	jal	ra,4564 <core_list_init>
    3370:	02c12403          	lw	s0,44(sp)
    3374:	02a12823          	sw	a0,48(sp)
    3378:	00247493          	andi	s1,s0,2
    337c:	da0482e3          	beqz	s1,3120 <coremark+0x140>
    3380:	00e11783          	lh	a5,14(sp)
    3384:	00c11603          	lh	a2,12(sp)
    3388:	01c12583          	lw	a1,28(sp)
    338c:	02412503          	lw	a0,36(sp)
    3390:	01079793          	slli	a5,a5,0x10
    3394:	03410693          	addi	a3,sp,52
    3398:	00c7e633          	or	a2,a5,a2
    339c:	870ff0ef          	jal	ra,240c <core_init_matrix>
    33a0:	02c12403          	lw	s0,44(sp)
    33a4:	d7dff06f          	j	3120 <coremark+0x140>
    33a8:	000097b7          	lui	a5,0x9
    33ac:	a0278793          	addi	a5,a5,-1534 # 8a02 <_etext+0x24fe>
    33b0:	36f50a63          	beq	a0,a5,3724 <coremark+0x744>
    33b4:	0000f7b7          	lui	a5,0xf
    33b8:	9f578793          	addi	a5,a5,-1547 # e9f5 <_etext+0x84f1>
    33bc:	00f51c63          	bne	a0,a5,33d4 <coremark+0x3f4>
    33c0:	000fd517          	auipc	a0,0xfd
    33c4:	30050513          	addi	a0,a0,768 # 1006c0 <CSWTCH.57+0x100>
    33c8:	5f1020ef          	jal	ra,61b8 <puts>
    33cc:	00300c93          	li	s9,3
    33d0:	e4dff06f          	j	321c <coremark+0x23c>
    33d4:	00010437          	lui	s0,0x10
    33d8:	fff40413          	addi	s0,s0,-1 # ffff <_etext+0x9afb>
    33dc:	000fe497          	auipc	s1,0xfe
    33e0:	11048493          	addi	s1,s1,272 # 1014ec <default_num_contexts>
    33e4:	820ff0ef          	jal	ra,2404 <check_data_types>
    33e8:	02412583          	lw	a1,36(sp)
    33ec:	00a40a33          	add	s4,s0,a0
    33f0:	000fd517          	auipc	a0,0xfd
    33f4:	3bc50513          	addi	a0,a0,956 # 1007ac <CSWTCH.57+0x1ec>
    33f8:	09d020ef          	jal	ra,5c94 <printf>
    33fc:	00090513          	mv	a0,s2
    3400:	f85fc0ef          	jal	ra,384 <time_in_secs>
    3404:	00050593          	mv	a1,a0
    3408:	000fd517          	auipc	a0,0xfd
    340c:	3bc50513          	addi	a0,a0,956 # 1007c4 <CSWTCH.57+0x204>
    3410:	085020ef          	jal	ra,5c94 <printf>
    3414:	0004a583          	lw	a1,0(s1)
    3418:	02812503          	lw	a0,40(sp)
    341c:	010a1a13          	slli	s4,s4,0x10
    3420:	410a5a13          	srai	s4,s4,0x10
    3424:	334020ef          	jal	ra,5758 <__mulsi3>
    3428:	00050593          	mv	a1,a0
    342c:	000fd517          	auipc	a0,0xfd
    3430:	3b050513          	addi	a0,a0,944 # 1007dc <CSWTCH.57+0x21c>
    3434:	061020ef          	jal	ra,5c94 <printf>
    3438:	000fd597          	auipc	a1,0xfd
    343c:	3bc58593          	addi	a1,a1,956 # 1007f4 <CSWTCH.57+0x234>
    3440:	000fd517          	auipc	a0,0xfd
    3444:	3c050513          	addi	a0,a0,960 # 100800 <CSWTCH.57+0x240>
    3448:	04d020ef          	jal	ra,5c94 <printf>
    344c:	00098593          	mv	a1,s3
    3450:	000fd517          	auipc	a0,0xfd
    3454:	3c850513          	addi	a0,a0,968 # 100818 <CSWTCH.57+0x258>
    3458:	03d020ef          	jal	ra,5c94 <printf>
    345c:	02c12703          	lw	a4,44(sp)
    3460:	00177793          	andi	a5,a4,1
    3464:	18078c63          	beqz	a5,35fc <coremark+0x61c>
    3468:	0004a783          	lw	a5,0(s1)
    346c:	00000413          	li	s0,0
    3470:	000fd997          	auipc	s3,0xfd
    3474:	3c498993          	addi	s3,s3,964 # 100834 <CSWTCH.57+0x274>
    3478:	0e078263          	beqz	a5,355c <coremark+0x57c>
    347c:	00441793          	slli	a5,s0,0x4
    3480:	008787b3          	add	a5,a5,s0
    3484:	05010713          	addi	a4,sp,80
    3488:	00279793          	slli	a5,a5,0x2
    348c:	00f707b3          	add	a5,a4,a5
    3490:	ff67d603          	lhu	a2,-10(a5)
    3494:	00040593          	mv	a1,s0
    3498:	00098513          	mv	a0,s3
    349c:	7f8020ef          	jal	ra,5c94 <printf>
    34a0:	00140413          	addi	s0,s0,1
    34a4:	0004a783          	lw	a5,0(s1)
    34a8:	01041413          	slli	s0,s0,0x10
    34ac:	01045413          	srli	s0,s0,0x10
    34b0:	fcf466e3          	bltu	s0,a5,347c <coremark+0x49c>
    34b4:	02c12703          	lw	a4,44(sp)
    34b8:	00277693          	andi	a3,a4,2
    34bc:	04068863          	beqz	a3,350c <coremark+0x52c>
    34c0:	08078e63          	beqz	a5,355c <coremark+0x57c>
    34c4:	00000413          	li	s0,0
    34c8:	000fd997          	auipc	s3,0xfd
    34cc:	38898993          	addi	s3,s3,904 # 100850 <CSWTCH.57+0x290>
    34d0:	00441793          	slli	a5,s0,0x4
    34d4:	008787b3          	add	a5,a5,s0
    34d8:	05010713          	addi	a4,sp,80
    34dc:	00279793          	slli	a5,a5,0x2
    34e0:	00f707b3          	add	a5,a4,a5
    34e4:	ff87d603          	lhu	a2,-8(a5)
    34e8:	00040593          	mv	a1,s0
    34ec:	00098513          	mv	a0,s3
    34f0:	7a4020ef          	jal	ra,5c94 <printf>
    34f4:	00140413          	addi	s0,s0,1
    34f8:	0004a783          	lw	a5,0(s1)
    34fc:	01041413          	slli	s0,s0,0x10
    3500:	01045413          	srli	s0,s0,0x10
    3504:	fcf466e3          	bltu	s0,a5,34d0 <coremark+0x4f0>
    3508:	02c12703          	lw	a4,44(sp)
    350c:	00477713          	andi	a4,a4,4
    3510:	14071263          	bnez	a4,3654 <coremark+0x674>
    3514:	04078463          	beqz	a5,355c <coremark+0x57c>
    3518:	00000413          	li	s0,0
    351c:	000fd997          	auipc	s3,0xfd
    3520:	38098993          	addi	s3,s3,896 # 10089c <CSWTCH.57+0x2dc>
    3524:	00441793          	slli	a5,s0,0x4
    3528:	008787b3          	add	a5,a5,s0
    352c:	05010713          	addi	a4,sp,80
    3530:	00279793          	slli	a5,a5,0x2
    3534:	00f707b3          	add	a5,a4,a5
    3538:	ff47d603          	lhu	a2,-12(a5)
    353c:	00040593          	mv	a1,s0
    3540:	00098513          	mv	a0,s3
    3544:	750020ef          	jal	ra,5c94 <printf>
    3548:	00140413          	addi	s0,s0,1
    354c:	0004a783          	lw	a5,0(s1)
    3550:	01041413          	slli	s0,s0,0x10
    3554:	01045413          	srli	s0,s0,0x10
    3558:	fcf466e3          	bltu	s0,a5,3524 <coremark+0x544>
    355c:	00090593          	mv	a1,s2
    3560:	000fd517          	auipc	a0,0xfd
    3564:	30c50513          	addi	a0,a0,780 # 10086c <CSWTCH.57+0x2ac>
    3568:	72c020ef          	jal	ra,5c94 <printf>
    356c:	140a0263          	beqz	s4,36b0 <coremark+0x6d0>
    3570:	13405863          	blez	s4,36a0 <coremark+0x6c0>
    3574:	000fd517          	auipc	a0,0xfd
    3578:	3d050513          	addi	a0,a0,976 # 100944 <CSWTCH.57+0x384>
    357c:	43d020ef          	jal	ra,61b8 <puts>
    3580:	04e10513          	addi	a0,sp,78
    3584:	e11fc0ef          	jal	ra,394 <portable_fini>
    3588:	00a00513          	li	a0,10
    358c:	520010ef          	jal	ra,4aac <putch>
    3590:	08c12083          	lw	ra,140(sp)
    3594:	08812403          	lw	s0,136(sp)
    3598:	08412483          	lw	s1,132(sp)
    359c:	08012903          	lw	s2,128(sp)
    35a0:	07c12983          	lw	s3,124(sp)
    35a4:	07812a03          	lw	s4,120(sp)
    35a8:	07412a83          	lw	s5,116(sp)
    35ac:	07012b03          	lw	s6,112(sp)
    35b0:	06c12b83          	lw	s7,108(sp)
    35b4:	06812c03          	lw	s8,104(sp)
    35b8:	06412c83          	lw	s9,100(sp)
    35bc:	06012d03          	lw	s10,96(sp)
    35c0:	05c12d83          	lw	s11,92(sp)
    35c4:	09010113          	addi	sp,sp,144
    35c8:	00008067          	ret
    35cc:	000b0513          	mv	a0,s6
    35d0:	00c10793          	addi	a5,sp,12
    35d4:	00291b93          	slli	s7,s2,0x2
    35d8:	00098593          	mv	a1,s3
    35dc:	01778bb3          	add	s7,a5,s7
    35e0:	001b0b13          	addi	s6,s6,1
    35e4:	174020ef          	jal	ra,5758 <__mulsi3>
    35e8:	00aa0533          	add	a0,s4,a0
    35ec:	010b1b13          	slli	s6,s6,0x10
    35f0:	00aba623          	sw	a0,12(s7)
    35f4:	010b5b13          	srli	s6,s6,0x10
    35f8:	b19ff06f          	j	3110 <coremark+0x130>
    35fc:	00277693          	andi	a3,a4,2
    3600:	0004a783          	lw	a5,0(s1)
    3604:	ea069ee3          	bnez	a3,34c0 <coremark+0x4e0>
    3608:	00477713          	andi	a4,a4,4
    360c:	f00704e3          	beqz	a4,3514 <coremark+0x534>
    3610:	0440006f          	j	3654 <coremark+0x674>
    3614:	00100713          	li	a4,1
    3618:	a8e79ae3          	bne	a5,a4,30ac <coremark+0xcc>
    361c:	01011783          	lh	a5,16(sp)
    3620:	a80796e3          	bnez	a5,30ac <coremark+0xcc>
    3624:	341537b7          	lui	a5,0x34153
    3628:	41578793          	addi	a5,a5,1045 # 34153415 <_end+0x34041015>
    362c:	00f12623          	sw	a5,12(sp)
    3630:	06600793          	li	a5,102
    3634:	00f11823          	sh	a5,16(sp)
    3638:	a75ff06f          	j	30ac <coremark+0xcc>
    363c:	00700793          	li	a5,7
    3640:	02f12623          	sw	a5,44(sp)
    3644:	00100a93          	li	s5,1
    3648:	00700413          	li	s0,7
    364c:	00100593          	li	a1,1
    3650:	a4dff06f          	j	309c <coremark+0xbc>
    3654:	00000413          	li	s0,0
    3658:	000fd997          	auipc	s3,0xfd
    365c:	22898993          	addi	s3,s3,552 # 100880 <CSWTCH.57+0x2c0>
    3660:	ee078ee3          	beqz	a5,355c <coremark+0x57c>
    3664:	00441793          	slli	a5,s0,0x4
    3668:	008787b3          	add	a5,a5,s0
    366c:	05010713          	addi	a4,sp,80
    3670:	00279793          	slli	a5,a5,0x2
    3674:	00f707b3          	add	a5,a4,a5
    3678:	ffa7d603          	lhu	a2,-6(a5)
    367c:	00040593          	mv	a1,s0
    3680:	00098513          	mv	a0,s3
    3684:	610020ef          	jal	ra,5c94 <printf>
    3688:	00140413          	addi	s0,s0,1
    368c:	0004a783          	lw	a5,0(s1)
    3690:	01041413          	slli	s0,s0,0x10
    3694:	01045413          	srli	s0,s0,0x10
    3698:	fcf466e3          	bltu	s0,a5,3664 <coremark+0x684>
    369c:	e79ff06f          	j	3514 <coremark+0x534>
    36a0:	000fd517          	auipc	a0,0xfd
    36a4:	2b450513          	addi	a0,a0,692 # 100954 <CSWTCH.57+0x394>
    36a8:	311020ef          	jal	ra,61b8 <puts>
    36ac:	ed5ff06f          	j	3580 <coremark+0x5a0>
    36b0:	000fd517          	auipc	a0,0xfd
    36b4:	20850513          	addi	a0,a0,520 # 1008b8 <CSWTCH.57+0x2f8>
    36b8:	301020ef          	jal	ra,61b8 <puts>
    36bc:	00090513          	mv	a0,s2
    36c0:	cc5fc0ef          	jal	ra,384 <time_in_secs>
    36c4:	00050593          	mv	a1,a0
    36c8:	002c9537          	lui	a0,0x2c9
    36cc:	3b850513          	addi	a0,a0,952 # 2c93b8 <_end+0x1b6fb8>
    36d0:	7dd010ef          	jal	ra,56ac <__hidden___udivsi3>
    36d4:	00551793          	slli	a5,a0,0x5
    36d8:	40a787b3          	sub	a5,a5,a0
    36dc:	00279793          	slli	a5,a5,0x2
    36e0:	00a78533          	add	a0,a5,a0
    36e4:	3e800593          	li	a1,1000
    36e8:	00351513          	slli	a0,a0,0x3
    36ec:	7c1010ef          	jal	ra,56ac <__hidden___udivsi3>
    36f0:	00050593          	mv	a1,a0
    36f4:	000fd517          	auipc	a0,0xfd
    36f8:	1f850513          	addi	a0,a0,504 # 1008ec <CSWTCH.57+0x32c>
    36fc:	598020ef          	jal	ra,5c94 <printf>
    3700:	000fd517          	auipc	a0,0xfd
    3704:	20c50513          	addi	a0,a0,524 # 10090c <CSWTCH.57+0x34c>
    3708:	2b1020ef          	jal	ra,61b8 <puts>
    370c:	e75ff06f          	j	3580 <coremark+0x5a0>
    3710:	000fd517          	auipc	a0,0xfd
    3714:	fdc50513          	addi	a0,a0,-36 # 1006ec <CSWTCH.57+0x12c>
    3718:	2a1020ef          	jal	ra,61b8 <puts>
    371c:	00400c93          	li	s9,4
    3720:	afdff06f          	j	321c <coremark+0x23c>
    3724:	000fd517          	auipc	a0,0xfd
    3728:	f1450513          	addi	a0,a0,-236 # 100638 <CSWTCH.57+0x78>
    372c:	28d020ef          	jal	ra,61b8 <puts>
    3730:	00000c93          	li	s9,0
    3734:	ae9ff06f          	j	321c <coremark+0x23c>
    3738:	000fd517          	auipc	a0,0xfd
    373c:	f2c50513          	addi	a0,a0,-212 # 100664 <CSWTCH.57+0xa4>
    3740:	279020ef          	jal	ra,61b8 <puts>
    3744:	00100c93          	li	s9,1
    3748:	ad5ff06f          	j	321c <coremark+0x23c>
    374c:	00000413          	li	s0,0
    3750:	c95ff06f          	j	33e4 <coremark+0x404>

00003754 <help>:
    3754:	ff010113          	addi	sp,sp,-16
    3758:	000fd517          	auipc	a0,0xfd
    375c:	29c50513          	addi	a0,a0,668 # 1009f4 <state_known_crc+0xc>
    3760:	00112623          	sw	ra,12(sp)
    3764:	530020ef          	jal	ra,5c94 <printf>
    3768:	00a00513          	li	a0,10
    376c:	340010ef          	jal	ra,4aac <putch>
    3770:	000fd517          	auipc	a0,0xfd
    3774:	2b050513          	addi	a0,a0,688 # 100a20 <state_known_crc+0x38>
    3778:	51c020ef          	jal	ra,5c94 <printf>
    377c:	00a00513          	li	a0,10
    3780:	32c010ef          	jal	ra,4aac <putch>
    3784:	000fd517          	auipc	a0,0xfd
    3788:	2c850513          	addi	a0,a0,712 # 100a4c <state_known_crc+0x64>
    378c:	508020ef          	jal	ra,5c94 <printf>
    3790:	00c12083          	lw	ra,12(sp)
    3794:	00a00513          	li	a0,10
    3798:	01010113          	addi	sp,sp,16
    379c:	3100106f          	j	4aac <putch>

000037a0 <get_handle>:
    37a0:	fe010113          	addi	sp,sp,-32
    37a4:	01412423          	sw	s4,8(sp)
    37a8:	000fea17          	auipc	s4,0xfe
    37ac:	af4a0a13          	addi	s4,s4,-1292 # 10129c <handle>
    37b0:	00812c23          	sw	s0,24(sp)
    37b4:	00912a23          	sw	s1,20(sp)
    37b8:	01212823          	sw	s2,16(sp)
    37bc:	01312623          	sw	s3,12(sp)
    37c0:	00112e23          	sw	ra,28(sp)
    37c4:	00050913          	mv	s2,a0
    37c8:	000a0413          	mv	s0,s4
    37cc:	00000493          	li	s1,0
    37d0:	00900993          	li	s3,9
    37d4:	00042583          	lw	a1,0(s0)
    37d8:	00090513          	mv	a0,s2
    37dc:	00840413          	addi	s0,s0,8
    37e0:	0cc020ef          	jal	ra,58ac <strcmp>
    37e4:	02050863          	beqz	a0,3814 <get_handle+0x74>
    37e8:	00148493          	addi	s1,s1,1
    37ec:	ff3494e3          	bne	s1,s3,37d4 <get_handle+0x34>
    37f0:	04ca2303          	lw	t1,76(s4)
    37f4:	01812403          	lw	s0,24(sp)
    37f8:	01c12083          	lw	ra,28(sp)
    37fc:	01412483          	lw	s1,20(sp)
    3800:	01012903          	lw	s2,16(sp)
    3804:	00c12983          	lw	s3,12(sp)
    3808:	00812a03          	lw	s4,8(sp)
    380c:	02010113          	addi	sp,sp,32
    3810:	00030067          	jr	t1
    3814:	00349493          	slli	s1,s1,0x3
    3818:	009a04b3          	add	s1,s4,s1
    381c:	0044a303          	lw	t1,4(s1)
    3820:	fd5ff06f          	j	37f4 <get_handle+0x54>

00003824 <main>:
    3824:	fa010113          	addi	sp,sp,-96
    3828:	000fd517          	auipc	a0,0xfd
    382c:	23050513          	addi	a0,a0,560 # 100a58 <state_known_crc+0x70>
    3830:	04812c23          	sw	s0,88(sp)
    3834:	04112e23          	sw	ra,92(sp)
    3838:	000fd417          	auipc	s0,0xfd
    383c:	22040413          	addi	s0,s0,544 # 100a58 <state_known_crc+0x70>
    3840:	454020ef          	jal	ra,5c94 <printf>
    3844:	0140006f          	j	3858 <main+0x34>
    3848:	00010513          	mv	a0,sp
    384c:	f55ff0ef          	jal	ra,37a0 <get_handle>
    3850:	00040513          	mv	a0,s0
    3854:	440020ef          	jal	ra,5c94 <printf>
    3858:	00010513          	mv	a0,sp
    385c:	3e1020ef          	jal	ra,643c <gets>
    3860:	fe0514e3          	bnez	a0,3848 <main+0x24>
    3864:	05c12083          	lw	ra,92(sp)
    3868:	05812403          	lw	s0,88(sp)
    386c:	06010113          	addi	sp,sp,96
    3870:	00008067          	ret

00003874 <core_init_state>:
    3874:	fff50813          	addi	a6,a0,-1
    3878:	00100793          	li	a5,1
    387c:	1307f263          	bgeu	a5,a6,39a0 <core_init_state+0x12c>
    3880:	00158593          	addi	a1,a1,1
    3884:	01059593          	slli	a1,a1,0x10
    3888:	0105d593          	srli	a1,a1,0x10
    388c:	ff010113          	addi	sp,sp,-16
    3890:	0035d793          	srli	a5,a1,0x3
    3894:	00812623          	sw	s0,12(sp)
    3898:	00700e13          	li	t3,7
    389c:	0075f713          	andi	a4,a1,7
    38a0:	00000693          	li	a3,0
    38a4:	000fde97          	auipc	t4,0xfd
    38a8:	2a8e8e93          	addi	t4,t4,680 # 100b4c <intpat>
    38ac:	00400313          	li	t1,4
    38b0:	00100893          	li	a7,1
    38b4:	02c00f13          	li	t5,44
    38b8:	0037f793          	andi	a5,a5,3
    38bc:	07c70e63          	beq	a4,t3,3938 <core_init_state+0xc4>
    38c0:	0ce36463          	bltu	t1,a4,3988 <core_init_state+0x114>
    38c4:	ffd70713          	addi	a4,a4,-3
    38c8:	01071713          	slli	a4,a4,0x10
    38cc:	00279793          	slli	a5,a5,0x2
    38d0:	01075713          	srli	a4,a4,0x10
    38d4:	00fe87b3          	add	a5,t4,a5
    38d8:	0ae8e063          	bltu	a7,a4,3978 <core_init_state+0x104>
    38dc:	0107a783          	lw	a5,16(a5)
    38e0:	00900f93          	li	t6,9
    38e4:	00800413          	li	s0,8
    38e8:	01f68fb3          	add	t6,a3,t6
    38ec:	070ff463          	bgeu	t6,a6,3954 <core_init_state+0xe0>
    38f0:	00d606b3          	add	a3,a2,a3
    38f4:	00068713          	mv	a4,a3
    38f8:	008783b3          	add	t2,a5,s0
    38fc:	0007c283          	lbu	t0,0(a5)
    3900:	00178793          	addi	a5,a5,1
    3904:	00170713          	addi	a4,a4,1
    3908:	fe570fa3          	sb	t0,-1(a4)
    390c:	fe7798e3          	bne	a5,t2,38fc <core_init_state+0x88>
    3910:	00158593          	addi	a1,a1,1
    3914:	01059593          	slli	a1,a1,0x10
    3918:	008686b3          	add	a3,a3,s0
    391c:	0105d593          	srli	a1,a1,0x10
    3920:	01e68023          	sb	t5,0(a3)
    3924:	0035d793          	srli	a5,a1,0x3
    3928:	0075f713          	andi	a4,a1,7
    392c:	000f8693          	mv	a3,t6
    3930:	0037f793          	andi	a5,a5,3
    3934:	f9c716e3          	bne	a4,t3,38c0 <core_init_state+0x4c>
    3938:	00279793          	slli	a5,a5,0x2
    393c:	00900f93          	li	t6,9
    3940:	00fe87b3          	add	a5,t4,a5
    3944:	01f68fb3          	add	t6,a3,t6
    3948:	0307a783          	lw	a5,48(a5)
    394c:	00800413          	li	s0,8
    3950:	fb0fe0e3          	bltu	t6,a6,38f0 <core_init_state+0x7c>
    3954:	00d607b3          	add	a5,a2,a3
    3958:	00a60633          	add	a2,a2,a0
    395c:	00a6f863          	bgeu	a3,a0,396c <core_init_state+0xf8>
    3960:	00078023          	sb	zero,0(a5)
    3964:	00178793          	addi	a5,a5,1
    3968:	fef61ce3          	bne	a2,a5,3960 <core_init_state+0xec>
    396c:	00c12403          	lw	s0,12(sp)
    3970:	01010113          	addi	sp,sp,16
    3974:	00008067          	ret
    3978:	0007a783          	lw	a5,0(a5)
    397c:	00500f93          	li	t6,5
    3980:	00400413          	li	s0,4
    3984:	f65ff06f          	j	38e8 <core_init_state+0x74>
    3988:	00279793          	slli	a5,a5,0x2
    398c:	00fe87b3          	add	a5,t4,a5
    3990:	0207a783          	lw	a5,32(a5)
    3994:	00900f93          	li	t6,9
    3998:	00800413          	li	s0,8
    399c:	f4dff06f          	j	38e8 <core_init_state+0x74>
    39a0:	00000693          	li	a3,0
    39a4:	00d607b3          	add	a5,a2,a3
    39a8:	00a60633          	add	a2,a2,a0
    39ac:	00078023          	sb	zero,0(a5)
    39b0:	00178793          	addi	a5,a5,1
    39b4:	fef61ce3          	bne	a2,a5,39ac <core_init_state+0x138>
    39b8:	00008067          	ret

000039bc <core_state_transition>:
    39bc:	00052783          	lw	a5,0(a0)
    39c0:	00050e13          	mv	t3,a0
    39c4:	00000513          	li	a0,0
    39c8:	0007c703          	lbu	a4,0(a5)
    39cc:	00078813          	mv	a6,a5
    39d0:	0c070c63          	beqz	a4,3aa8 <core_state_transition+0xec>
    39d4:	02c00693          	li	a3,44
    39d8:	00178813          	addi	a6,a5,1
    39dc:	2ad70863          	beq	a4,a3,3c8c <core_state_transition+0x2d0>
    39e0:	0005a503          	lw	a0,0(a1)
    39e4:	fd070613          	addi	a2,a4,-48
    39e8:	0ff67613          	andi	a2,a2,255
    39ec:	00900893          	li	a7,9
    39f0:	00150513          	addi	a0,a0,1
    39f4:	0ac8ee63          	bltu	a7,a2,3ab0 <core_state_transition+0xf4>
    39f8:	00a5a023          	sw	a0,0(a1)
    39fc:	0017c883          	lbu	a7,1(a5)
    3a00:	16088063          	beqz	a7,3b60 <core_state_transition+0x1a4>
    3a04:	00278713          	addi	a4,a5,2
    3a08:	14d88a63          	beq	a7,a3,3b5c <core_state_transition+0x1a0>
    3a0c:	fd088513          	addi	a0,a7,-48
    3a10:	02e00793          	li	a5,46
    3a14:	00900693          	li	a3,9
    3a18:	02c00613          	li	a2,44
    3a1c:	0ff57513          	andi	a0,a0,255
    3a20:	02f88663          	beq	a7,a5,3a4c <core_state_transition+0x90>
    3a24:	0ca6e063          	bltu	a3,a0,3ae4 <core_state_transition+0x128>
    3a28:	00184883          	lbu	a7,1(a6) # fffff001 <_end+0xffeecc01>
    3a2c:	00170513          	addi	a0,a4,1
    3a30:	00070813          	mv	a6,a4
    3a34:	12088463          	beqz	a7,3b5c <core_state_transition+0x1a0>
    3a38:	28c88863          	beq	a7,a2,3cc8 <core_state_transition+0x30c>
    3a3c:	00050713          	mv	a4,a0
    3a40:	fd088513          	addi	a0,a7,-48
    3a44:	0ff57513          	andi	a0,a0,255
    3a48:	fcf89ee3          	bne	a7,a5,3a24 <core_state_transition+0x68>
    3a4c:	0105a783          	lw	a5,16(a1)
    3a50:	00500513          	li	a0,5
    3a54:	00178793          	addi	a5,a5,1
    3a58:	00f5a823          	sw	a5,16(a1)
    3a5c:	00184303          	lbu	t1,1(a6)
    3a60:	00070813          	mv	a6,a4
    3a64:	04030263          	beqz	t1,3aa8 <core_state_transition+0xec>
    3a68:	02c00793          	li	a5,44
    3a6c:	00170893          	addi	a7,a4,1
    3a70:	20f30863          	beq	t1,a5,3c80 <core_state_transition+0x2c4>
    3a74:	04500793          	li	a5,69
    3a78:	00900693          	li	a3,9
    3a7c:	02c00613          	li	a2,44
    3a80:	fd030513          	addi	a0,t1,-48
    3a84:	0df37313          	andi	t1,t1,223
    3a88:	0ff57513          	andi	a0,a0,255
    3a8c:	0cf30e63          	beq	t1,a5,3b68 <core_state_transition+0x1ac>
    3a90:	1aa6f063          	bgeu	a3,a0,3c30 <core_state_transition+0x274>
    3a94:	0145a783          	lw	a5,20(a1)
    3a98:	00088813          	mv	a6,a7
    3a9c:	00100513          	li	a0,1
    3aa0:	00178793          	addi	a5,a5,1
    3aa4:	00f5aa23          	sw	a5,20(a1)
    3aa8:	010e2023          	sw	a6,0(t3)
    3aac:	00008067          	ret
    3ab0:	02b00613          	li	a2,43
    3ab4:	04c70663          	beq	a4,a2,3b00 <core_state_transition+0x144>
    3ab8:	02d00613          	li	a2,45
    3abc:	04c70263          	beq	a4,a2,3b00 <core_state_transition+0x144>
    3ac0:	02e00613          	li	a2,46
    3ac4:	18c70463          	beq	a4,a2,3c4c <core_state_transition+0x290>
    3ac8:	0045a783          	lw	a5,4(a1)
    3acc:	00a5a023          	sw	a0,0(a1)
    3ad0:	00100513          	li	a0,1
    3ad4:	00178793          	addi	a5,a5,1
    3ad8:	00f5a223          	sw	a5,4(a1)
    3adc:	010e2023          	sw	a6,0(t3)
    3ae0:	00008067          	ret
    3ae4:	0105a783          	lw	a5,16(a1)
    3ae8:	00070813          	mv	a6,a4
    3aec:	00100513          	li	a0,1
    3af0:	00178793          	addi	a5,a5,1
    3af4:	00f5a823          	sw	a5,16(a1)
    3af8:	010e2023          	sw	a6,0(t3)
    3afc:	00008067          	ret
    3b00:	00a5a023          	sw	a0,0(a1)
    3b04:	0017c603          	lbu	a2,1(a5)
    3b08:	1a060663          	beqz	a2,3cb4 <core_state_transition+0x2f8>
    3b0c:	00278813          	addi	a6,a5,2
    3b10:	1ad60263          	beq	a2,a3,3cb4 <core_state_transition+0x2f8>
    3b14:	0085a683          	lw	a3,8(a1)
    3b18:	fd060713          	addi	a4,a2,-48
    3b1c:	0ff77713          	andi	a4,a4,255
    3b20:	00900513          	li	a0,9
    3b24:	00168693          	addi	a3,a3,1
    3b28:	00e57e63          	bgeu	a0,a4,3b44 <core_state_transition+0x188>
    3b2c:	02e00713          	li	a4,46
    3b30:	12e60c63          	beq	a2,a4,3c68 <core_state_transition+0x2ac>
    3b34:	00d5a423          	sw	a3,8(a1)
    3b38:	00100513          	li	a0,1
    3b3c:	010e2023          	sw	a6,0(t3)
    3b40:	00008067          	ret
    3b44:	00d5a423          	sw	a3,8(a1)
    3b48:	0027c883          	lbu	a7,2(a5)
    3b4c:	00088a63          	beqz	a7,3b60 <core_state_transition+0x1a4>
    3b50:	02c00793          	li	a5,44
    3b54:	00180713          	addi	a4,a6,1
    3b58:	eaf89ae3          	bne	a7,a5,3a0c <core_state_transition+0x50>
    3b5c:	00070813          	mv	a6,a4
    3b60:	00400513          	li	a0,4
    3b64:	f45ff06f          	j	3aa8 <core_state_transition+0xec>
    3b68:	0145a783          	lw	a5,20(a1)
    3b6c:	00178793          	addi	a5,a5,1
    3b70:	00f5aa23          	sw	a5,20(a1)
    3b74:	00174783          	lbu	a5,1(a4)
    3b78:	12078463          	beqz	a5,3ca0 <core_state_transition+0x2e4>
    3b7c:	02c00693          	li	a3,44
    3b80:	00188813          	addi	a6,a7,1
    3b84:	12d78063          	beq	a5,a3,3ca4 <core_state_transition+0x2e8>
    3b88:	00c5a703          	lw	a4,12(a1)
    3b8c:	fd578793          	addi	a5,a5,-43
    3b90:	0fd7f793          	andi	a5,a5,253
    3b94:	00170713          	addi	a4,a4,1
    3b98:	00e5a623          	sw	a4,12(a1)
    3b9c:	00078863          	beqz	a5,3bac <core_state_transition+0x1f0>
    3ba0:	00100513          	li	a0,1
    3ba4:	010e2023          	sw	a6,0(t3)
    3ba8:	00008067          	ret
    3bac:	0018c783          	lbu	a5,1(a7)
    3bb0:	0e078e63          	beqz	a5,3cac <core_state_transition+0x2f0>
    3bb4:	00288813          	addi	a6,a7,2
    3bb8:	0ed78a63          	beq	a5,a3,3cac <core_state_transition+0x2f0>
    3bbc:	0185a703          	lw	a4,24(a1)
    3bc0:	fd078793          	addi	a5,a5,-48
    3bc4:	0ff7f793          	andi	a5,a5,255
    3bc8:	00170713          	addi	a4,a4,1
    3bcc:	00900613          	li	a2,9
    3bd0:	00e5ac23          	sw	a4,24(a1)
    3bd4:	fcf666e3          	bltu	a2,a5,3ba0 <core_state_transition+0x1e4>
    3bd8:	0028c703          	lbu	a4,2(a7)
    3bdc:	0a070e63          	beqz	a4,3c98 <core_state_transition+0x2dc>
    3be0:	00388793          	addi	a5,a7,3
    3be4:	0ad70863          	beq	a4,a3,3c94 <core_state_transition+0x2d8>
    3be8:	00900693          	li	a3,9
    3bec:	02c00513          	li	a0,44
    3bf0:	fd070713          	addi	a4,a4,-48
    3bf4:	0ff77713          	andi	a4,a4,255
    3bf8:	00e6fe63          	bgeu	a3,a4,3c14 <core_state_transition+0x258>
    3bfc:	0045a703          	lw	a4,4(a1)
    3c00:	00078813          	mv	a6,a5
    3c04:	00100513          	li	a0,1
    3c08:	00170793          	addi	a5,a4,1
    3c0c:	00f5a223          	sw	a5,4(a1)
    3c10:	e99ff06f          	j	3aa8 <core_state_transition+0xec>
    3c14:	00184703          	lbu	a4,1(a6)
    3c18:	00178613          	addi	a2,a5,1
    3c1c:	00078813          	mv	a6,a5
    3c20:	06070a63          	beqz	a4,3c94 <core_state_transition+0x2d8>
    3c24:	08a70c63          	beq	a4,a0,3cbc <core_state_transition+0x300>
    3c28:	00060793          	mv	a5,a2
    3c2c:	fc5ff06f          	j	3bf0 <core_state_transition+0x234>
    3c30:	00174303          	lbu	t1,1(a4)
    3c34:	00188813          	addi	a6,a7,1
    3c38:	00088713          	mv	a4,a7
    3c3c:	04030263          	beqz	t1,3c80 <core_state_transition+0x2c4>
    3c40:	04c30263          	beq	t1,a2,3c84 <core_state_transition+0x2c8>
    3c44:	00080893          	mv	a7,a6
    3c48:	e39ff06f          	j	3a80 <core_state_transition+0xc4>
    3c4c:	00a5a023          	sw	a0,0(a1)
    3c50:	0017c303          	lbu	t1,1(a5)
    3c54:	02030863          	beqz	t1,3c84 <core_state_transition+0x2c8>
    3c58:	00278893          	addi	a7,a5,2
    3c5c:	02d30263          	beq	t1,a3,3c80 <core_state_transition+0x2c4>
    3c60:	00080713          	mv	a4,a6
    3c64:	e11ff06f          	j	3a74 <core_state_transition+0xb8>
    3c68:	00d5a423          	sw	a3,8(a1)
    3c6c:	0027c303          	lbu	t1,2(a5)
    3c70:	00030a63          	beqz	t1,3c84 <core_state_transition+0x2c8>
    3c74:	02c00793          	li	a5,44
    3c78:	00180893          	addi	a7,a6,1
    3c7c:	fef312e3          	bne	t1,a5,3c60 <core_state_transition+0x2a4>
    3c80:	00088813          	mv	a6,a7
    3c84:	00500513          	li	a0,5
    3c88:	e21ff06f          	j	3aa8 <core_state_transition+0xec>
    3c8c:	00000513          	li	a0,0
    3c90:	e19ff06f          	j	3aa8 <core_state_transition+0xec>
    3c94:	00078813          	mv	a6,a5
    3c98:	00700513          	li	a0,7
    3c9c:	e0dff06f          	j	3aa8 <core_state_transition+0xec>
    3ca0:	00088813          	mv	a6,a7
    3ca4:	00300513          	li	a0,3
    3ca8:	e01ff06f          	j	3aa8 <core_state_transition+0xec>
    3cac:	00600513          	li	a0,6
    3cb0:	df9ff06f          	j	3aa8 <core_state_transition+0xec>
    3cb4:	00200513          	li	a0,2
    3cb8:	df1ff06f          	j	3aa8 <core_state_transition+0xec>
    3cbc:	00060813          	mv	a6,a2
    3cc0:	00700513          	li	a0,7
    3cc4:	de5ff06f          	j	3aa8 <core_state_transition+0xec>
    3cc8:	00050813          	mv	a6,a0
    3ccc:	00400513          	li	a0,4
    3cd0:	dd9ff06f          	j	3aa8 <core_state_transition+0xec>

00003cd4 <core_bench_state>:
    3cd4:	f8010113          	addi	sp,sp,-128
    3cd8:	06912a23          	sw	s1,116(sp)
    3cdc:	07312623          	sw	s3,108(sp)
    3ce0:	01010493          	addi	s1,sp,16
    3ce4:	03010993          	addi	s3,sp,48
    3ce8:	06812c23          	sw	s0,120(sp)
    3cec:	07212823          	sw	s2,112(sp)
    3cf0:	07412423          	sw	s4,104(sp)
    3cf4:	07512223          	sw	s5,100(sp)
    3cf8:	07612023          	sw	s6,96(sp)
    3cfc:	05712e23          	sw	s7,92(sp)
    3d00:	00068a93          	mv	s5,a3
    3d04:	00070a13          	mv	s4,a4
    3d08:	00078913          	mv	s2,a5
    3d0c:	06112e23          	sw	ra,124(sp)
    3d10:	05812c23          	sw	s8,88(sp)
    3d14:	00058413          	mv	s0,a1
    3d18:	00050b93          	mv	s7,a0
    3d1c:	00060b13          	mv	s6,a2
    3d20:	00b12623          	sw	a1,12(sp)
    3d24:	05010693          	addi	a3,sp,80
    3d28:	00048713          	mv	a4,s1
    3d2c:	00098793          	mv	a5,s3
    3d30:	0007a023          	sw	zero,0(a5)
    3d34:	00072023          	sw	zero,0(a4)
    3d38:	00478793          	addi	a5,a5,4
    3d3c:	00470713          	addi	a4,a4,4
    3d40:	fed798e3          	bne	a5,a3,3d30 <core_bench_state+0x5c>
    3d44:	00044703          	lbu	a4,0(s0)
    3d48:	12070e63          	beqz	a4,3e84 <core_bench_state+0x1b0>
    3d4c:	00c10c13          	addi	s8,sp,12
    3d50:	03010593          	addi	a1,sp,48
    3d54:	000c0513          	mv	a0,s8
    3d58:	c65ff0ef          	jal	ra,39bc <core_state_transition>
    3d5c:	05010793          	addi	a5,sp,80
    3d60:	00251593          	slli	a1,a0,0x2
    3d64:	00b785b3          	add	a1,a5,a1
    3d68:	00c12703          	lw	a4,12(sp)
    3d6c:	fc05a783          	lw	a5,-64(a1)
    3d70:	00074703          	lbu	a4,0(a4)
    3d74:	00178793          	addi	a5,a5,1
    3d78:	fcf5a023          	sw	a5,-64(a1)
    3d7c:	fc071ae3          	bnez	a4,3d50 <core_bench_state+0x7c>
    3d80:	00812623          	sw	s0,12(sp)
    3d84:	01740bb3          	add	s7,s0,s7
    3d88:	00044703          	lbu	a4,0(s0)
    3d8c:	11747463          	bgeu	s0,s7,3e94 <core_bench_state+0x1c0>
    3d90:	00040793          	mv	a5,s0
    3d94:	02c00613          	li	a2,44
    3d98:	0080006f          	j	3da0 <core_bench_state+0xcc>
    3d9c:	0007c703          	lbu	a4,0(a5)
    3da0:	016746b3          	xor	a3,a4,s6
    3da4:	00c70463          	beq	a4,a2,3dac <core_bench_state+0xd8>
    3da8:	00d78023          	sb	a3,0(a5)
    3dac:	00c12783          	lw	a5,12(sp)
    3db0:	014787b3          	add	a5,a5,s4
    3db4:	00f12623          	sw	a5,12(sp)
    3db8:	ff77e2e3          	bltu	a5,s7,3d9c <core_bench_state+0xc8>
    3dbc:	00044783          	lbu	a5,0(s0)
    3dc0:	00812623          	sw	s0,12(sp)
    3dc4:	00c10c13          	addi	s8,sp,12
    3dc8:	02078e63          	beqz	a5,3e04 <core_bench_state+0x130>
    3dcc:	03010593          	addi	a1,sp,48
    3dd0:	000c0513          	mv	a0,s8
    3dd4:	be9ff0ef          	jal	ra,39bc <core_state_transition>
    3dd8:	05010793          	addi	a5,sp,80
    3ddc:	00251613          	slli	a2,a0,0x2
    3de0:	00c78633          	add	a2,a5,a2
    3de4:	00c12703          	lw	a4,12(sp)
    3de8:	fc062783          	lw	a5,-64(a2)
    3dec:	00074703          	lbu	a4,0(a4)
    3df0:	00178793          	addi	a5,a5,1
    3df4:	fcf62023          	sw	a5,-64(a2)
    3df8:	fc071ae3          	bnez	a4,3dcc <core_bench_state+0xf8>
    3dfc:	00812623          	sw	s0,12(sp)
    3e00:	03747463          	bgeu	s0,s7,3e28 <core_bench_state+0x154>
    3e04:	02c00693          	li	a3,44
    3e08:	00044783          	lbu	a5,0(s0)
    3e0c:	0157c733          	xor	a4,a5,s5
    3e10:	00d78463          	beq	a5,a3,3e18 <core_bench_state+0x144>
    3e14:	00e40023          	sb	a4,0(s0)
    3e18:	00c12403          	lw	s0,12(sp)
    3e1c:	01440433          	add	s0,s0,s4
    3e20:	00812623          	sw	s0,12(sp)
    3e24:	ff7462e3          	bltu	s0,s7,3e08 <core_bench_state+0x134>
    3e28:	02048413          	addi	s0,s1,32
    3e2c:	0004a503          	lw	a0,0(s1)
    3e30:	00090593          	mv	a1,s2
    3e34:	00448493          	addi	s1,s1,4
    3e38:	d8cfe0ef          	jal	ra,23c4 <crcu32>
    3e3c:	00050593          	mv	a1,a0
    3e40:	0009a503          	lw	a0,0(s3)
    3e44:	00498993          	addi	s3,s3,4
    3e48:	d7cfe0ef          	jal	ra,23c4 <crcu32>
    3e4c:	00050913          	mv	s2,a0
    3e50:	fc941ee3          	bne	s0,s1,3e2c <core_bench_state+0x158>
    3e54:	07c12083          	lw	ra,124(sp)
    3e58:	07812403          	lw	s0,120(sp)
    3e5c:	07412483          	lw	s1,116(sp)
    3e60:	07012903          	lw	s2,112(sp)
    3e64:	06c12983          	lw	s3,108(sp)
    3e68:	06812a03          	lw	s4,104(sp)
    3e6c:	06412a83          	lw	s5,100(sp)
    3e70:	06012b03          	lw	s6,96(sp)
    3e74:	05c12b83          	lw	s7,92(sp)
    3e78:	05812c03          	lw	s8,88(sp)
    3e7c:	08010113          	addi	sp,sp,128
    3e80:	00008067          	ret
    3e84:	00812623          	sw	s0,12(sp)
    3e88:	01740bb3          	add	s7,s0,s7
    3e8c:	f17462e3          	bltu	s0,s7,3d90 <core_bench_state+0xbc>
    3e90:	f99ff06f          	j	3e28 <core_bench_state+0x154>
    3e94:	f2071ce3          	bnez	a4,3dcc <core_bench_state+0xf8>
    3e98:	f91ff06f          	j	3e28 <core_bench_state+0x154>

00003e9c <cmp_idx>:
    3e9c:	00060a63          	beqz	a2,3eb0 <cmp_idx+0x14>
    3ea0:	00251503          	lh	a0,2(a0)
    3ea4:	00259783          	lh	a5,2(a1)
    3ea8:	40f50533          	sub	a0,a0,a5
    3eac:	00008067          	ret
    3eb0:	00051783          	lh	a5,0(a0)
    3eb4:	01079713          	slli	a4,a5,0x10
    3eb8:	01075713          	srli	a4,a4,0x10
    3ebc:	00875713          	srli	a4,a4,0x8
    3ec0:	f007f793          	andi	a5,a5,-256
    3ec4:	00e7e7b3          	or	a5,a5,a4
    3ec8:	00f51023          	sh	a5,0(a0)
    3ecc:	00059783          	lh	a5,0(a1)
    3ed0:	00251503          	lh	a0,2(a0)
    3ed4:	01079713          	slli	a4,a5,0x10
    3ed8:	01075713          	srli	a4,a4,0x10
    3edc:	00875713          	srli	a4,a4,0x8
    3ee0:	f007f793          	andi	a5,a5,-256
    3ee4:	00e7e7b3          	or	a5,a5,a4
    3ee8:	00f59023          	sh	a5,0(a1)
    3eec:	00259783          	lh	a5,2(a1)
    3ef0:	40f50533          	sub	a0,a0,a5
    3ef4:	00008067          	ret

00003ef8 <calc_func>:
    3ef8:	fe010113          	addi	sp,sp,-32
    3efc:	00812c23          	sw	s0,24(sp)
    3f00:	00051403          	lh	s0,0(a0)
    3f04:	00112e23          	sw	ra,28(sp)
    3f08:	00912a23          	sw	s1,20(sp)
    3f0c:	40745793          	srai	a5,s0,0x7
    3f10:	01212823          	sw	s2,16(sp)
    3f14:	01312623          	sw	s3,12(sp)
    3f18:	0017f793          	andi	a5,a5,1
    3f1c:	02078263          	beqz	a5,3f40 <calc_func+0x48>
    3f20:	01c12083          	lw	ra,28(sp)
    3f24:	07f47513          	andi	a0,s0,127
    3f28:	01812403          	lw	s0,24(sp)
    3f2c:	01412483          	lw	s1,20(sp)
    3f30:	01012903          	lw	s2,16(sp)
    3f34:	00c12983          	lw	s3,12(sp)
    3f38:	02010113          	addi	sp,sp,32
    3f3c:	00008067          	ret
    3f40:	00058493          	mv	s1,a1
    3f44:	40345593          	srai	a1,s0,0x3
    3f48:	00f5f593          	andi	a1,a1,15
    3f4c:	00459713          	slli	a4,a1,0x4
    3f50:	00747693          	andi	a3,s0,7
    3f54:	0384d783          	lhu	a5,56(s1)
    3f58:	00050993          	mv	s3,a0
    3f5c:	00b765b3          	or	a1,a4,a1
    3f60:	08068063          	beqz	a3,3fe0 <calc_func+0xe8>
    3f64:	00100713          	li	a4,1
    3f68:	04e68863          	beq	a3,a4,3fb8 <calc_func+0xc0>
    3f6c:	01041513          	slli	a0,s0,0x10
    3f70:	01055513          	srli	a0,a0,0x10
    3f74:	00040913          	mv	s2,s0
    3f78:	00078593          	mv	a1,a5
    3f7c:	bc4fe0ef          	jal	ra,2340 <crcu16>
    3f80:	00050793          	mv	a5,a0
    3f84:	f0047413          	andi	s0,s0,-256
    3f88:	07f97513          	andi	a0,s2,127
    3f8c:	00856433          	or	s0,a0,s0
    3f90:	02f49c23          	sh	a5,56(s1)
    3f94:	08046413          	ori	s0,s0,128
    3f98:	00899023          	sh	s0,0(s3)
    3f9c:	01c12083          	lw	ra,28(sp)
    3fa0:	01812403          	lw	s0,24(sp)
    3fa4:	01412483          	lw	s1,20(sp)
    3fa8:	01012903          	lw	s2,16(sp)
    3fac:	00c12983          	lw	s3,12(sp)
    3fb0:	02010113          	addi	sp,sp,32
    3fb4:	00008067          	ret
    3fb8:	00078613          	mv	a2,a5
    3fbc:	02848513          	addi	a0,s1,40
    3fc0:	f5dfe0ef          	jal	ra,2f1c <core_bench_matrix>
    3fc4:	03c4d783          	lhu	a5,60(s1)
    3fc8:	01051913          	slli	s2,a0,0x10
    3fcc:	41095913          	srai	s2,s2,0x10
    3fd0:	04079a63          	bnez	a5,4024 <calc_func+0x12c>
    3fd4:	0384d783          	lhu	a5,56(s1)
    3fd8:	02a49e23          	sh	a0,60(s1)
    3fdc:	f9dff06f          	j	3f78 <calc_func+0x80>
    3fe0:	02200693          	li	a3,34
    3fe4:	00058713          	mv	a4,a1
    3fe8:	00d5d463          	bge	a1,a3,3ff0 <calc_func+0xf8>
    3fec:	02200713          	li	a4,34
    3ff0:	00249683          	lh	a3,2(s1)
    3ff4:	00049603          	lh	a2,0(s1)
    3ff8:	0144a583          	lw	a1,20(s1)
    3ffc:	0184a503          	lw	a0,24(s1)
    4000:	0ff77713          	andi	a4,a4,255
    4004:	cd1ff0ef          	jal	ra,3cd4 <core_bench_state>
    4008:	03e4d783          	lhu	a5,62(s1)
    400c:	01051913          	slli	s2,a0,0x10
    4010:	41095913          	srai	s2,s2,0x10
    4014:	00079863          	bnez	a5,4024 <calc_func+0x12c>
    4018:	0384d783          	lhu	a5,56(s1)
    401c:	02a49f23          	sh	a0,62(s1)
    4020:	f59ff06f          	j	3f78 <calc_func+0x80>
    4024:	0384d783          	lhu	a5,56(s1)
    4028:	f51ff06f          	j	3f78 <calc_func+0x80>

0000402c <cmp_complex>:
    402c:	ff010113          	addi	sp,sp,-16
    4030:	00912223          	sw	s1,4(sp)
    4034:	00058493          	mv	s1,a1
    4038:	00060593          	mv	a1,a2
    403c:	00112623          	sw	ra,12(sp)
    4040:	00812423          	sw	s0,8(sp)
    4044:	00060413          	mv	s0,a2
    4048:	eb1ff0ef          	jal	ra,3ef8 <calc_func>
    404c:	00050793          	mv	a5,a0
    4050:	00040593          	mv	a1,s0
    4054:	00048513          	mv	a0,s1
    4058:	00078413          	mv	s0,a5
    405c:	e9dff0ef          	jal	ra,3ef8 <calc_func>
    4060:	00c12083          	lw	ra,12(sp)
    4064:	40a40533          	sub	a0,s0,a0
    4068:	00812403          	lw	s0,8(sp)
    406c:	00412483          	lw	s1,4(sp)
    4070:	01010113          	addi	sp,sp,16
    4074:	00008067          	ret

00004078 <copy_info>:
    4078:	00059703          	lh	a4,0(a1)
    407c:	00259783          	lh	a5,2(a1)
    4080:	00e51023          	sh	a4,0(a0)
    4084:	00f51123          	sh	a5,2(a0)
    4088:	00008067          	ret

0000408c <core_list_insert_new>:
    408c:	00062803          	lw	a6,0(a2)
    4090:	00880893          	addi	a7,a6,8
    4094:	04e8f663          	bgeu	a7,a4,40e0 <core_list_insert_new+0x54>
    4098:	0006a703          	lw	a4,0(a3)
    409c:	00470313          	addi	t1,a4,4
    40a0:	04f37063          	bgeu	t1,a5,40e0 <core_list_insert_new+0x54>
    40a4:	01162023          	sw	a7,0(a2)
    40a8:	00052783          	lw	a5,0(a0)
    40ac:	00059883          	lh	a7,0(a1)
    40b0:	00259603          	lh	a2,2(a1)
    40b4:	00f82023          	sw	a5,0(a6)
    40b8:	01052023          	sw	a6,0(a0)
    40bc:	00e82223          	sw	a4,4(a6)
    40c0:	0006a783          	lw	a5,0(a3)
    40c4:	00080513          	mv	a0,a6
    40c8:	00478793          	addi	a5,a5,4
    40cc:	00f6a023          	sw	a5,0(a3)
    40d0:	00482783          	lw	a5,4(a6)
    40d4:	01179023          	sh	a7,0(a5)
    40d8:	00c79123          	sh	a2,2(a5)
    40dc:	00008067          	ret
    40e0:	00000813          	li	a6,0
    40e4:	00080513          	mv	a0,a6
    40e8:	00008067          	ret

000040ec <core_list_remove>:
    40ec:	00050793          	mv	a5,a0
    40f0:	00052503          	lw	a0,0(a0)
    40f4:	0047a683          	lw	a3,4(a5)
    40f8:	00452603          	lw	a2,4(a0)
    40fc:	00052703          	lw	a4,0(a0)
    4100:	00c7a223          	sw	a2,4(a5)
    4104:	00d52223          	sw	a3,4(a0)
    4108:	00e7a023          	sw	a4,0(a5)
    410c:	00052023          	sw	zero,0(a0)
    4110:	00008067          	ret

00004114 <core_list_undo_remove>:
    4114:	0045a603          	lw	a2,4(a1)
    4118:	00452683          	lw	a3,4(a0)
    411c:	0005a703          	lw	a4,0(a1)
    4120:	00c52223          	sw	a2,4(a0)
    4124:	00d5a223          	sw	a3,4(a1)
    4128:	00e52023          	sw	a4,0(a0)
    412c:	00a5a023          	sw	a0,0(a1)
    4130:	00008067          	ret

00004134 <core_list_find>:
    4134:	00259703          	lh	a4,2(a1)
    4138:	02074263          	bltz	a4,415c <core_list_find+0x28>
    413c:	00051863          	bnez	a0,414c <core_list_find+0x18>
    4140:	0480006f          	j	4188 <core_list_find+0x54>
    4144:	00052503          	lw	a0,0(a0)
    4148:	02050c63          	beqz	a0,4180 <core_list_find+0x4c>
    414c:	00452783          	lw	a5,4(a0)
    4150:	00279783          	lh	a5,2(a5)
    4154:	fee798e3          	bne	a5,a4,4144 <core_list_find+0x10>
    4158:	00008067          	ret
    415c:	02050263          	beqz	a0,4180 <core_list_find+0x4c>
    4160:	00059703          	lh	a4,0(a1)
    4164:	00c0006f          	j	4170 <core_list_find+0x3c>
    4168:	00052503          	lw	a0,0(a0)
    416c:	00050c63          	beqz	a0,4184 <core_list_find+0x50>
    4170:	00452783          	lw	a5,4(a0)
    4174:	0007c783          	lbu	a5,0(a5)
    4178:	fee798e3          	bne	a5,a4,4168 <core_list_find+0x34>
    417c:	00008067          	ret
    4180:	00000513          	li	a0,0
    4184:	00008067          	ret
    4188:	00008067          	ret

0000418c <core_list_reverse>:
    418c:	02050063          	beqz	a0,41ac <core_list_reverse+0x20>
    4190:	00000713          	li	a4,0
    4194:	0080006f          	j	419c <core_list_reverse+0x10>
    4198:	00078513          	mv	a0,a5
    419c:	00052783          	lw	a5,0(a0)
    41a0:	00e52023          	sw	a4,0(a0)
    41a4:	00050713          	mv	a4,a0
    41a8:	fe0798e3          	bnez	a5,4198 <core_list_reverse+0xc>
    41ac:	00008067          	ret

000041b0 <core_list_mergesort>:
    41b0:	fd010113          	addi	sp,sp,-48
    41b4:	02912223          	sw	s1,36(sp)
    41b8:	01512a23          	sw	s5,20(sp)
    41bc:	01712623          	sw	s7,12(sp)
    41c0:	01912223          	sw	s9,4(sp)
    41c4:	01a12023          	sw	s10,0(sp)
    41c8:	02112623          	sw	ra,44(sp)
    41cc:	02812423          	sw	s0,40(sp)
    41d0:	03212023          	sw	s2,32(sp)
    41d4:	01312e23          	sw	s3,28(sp)
    41d8:	01412c23          	sw	s4,24(sp)
    41dc:	01612823          	sw	s6,16(sp)
    41e0:	01812423          	sw	s8,8(sp)
    41e4:	00050493          	mv	s1,a0
    41e8:	00058b93          	mv	s7,a1
    41ec:	00060d13          	mv	s10,a2
    41f0:	00100a93          	li	s5,1
    41f4:	00100c93          	li	s9,1
    41f8:	0c048063          	beqz	s1,42b8 <core_list_mergesort+0x108>
    41fc:	00000c13          	li	s8,0
    4200:	00000913          	li	s2,0
    4204:	00000b13          	li	s6,0
    4208:	001c0c13          	addi	s8,s8,1
    420c:	00048793          	mv	a5,s1
    4210:	00000413          	li	s0,0
    4214:	0007a783          	lw	a5,0(a5)
    4218:	00140413          	addi	s0,s0,1
    421c:	00078463          	beqz	a5,4224 <core_list_mergesort+0x74>
    4220:	fe8a9ae3          	bne	s5,s0,4214 <core_list_mergesort+0x64>
    4224:	00048a13          	mv	s4,s1
    4228:	000a8993          	mv	s3,s5
    422c:	00078493          	mv	s1,a5
    4230:	02040e63          	beqz	s0,426c <core_list_mergesort+0xbc>
    4234:	04098e63          	beqz	s3,4290 <core_list_mergesort+0xe0>
    4238:	04048c63          	beqz	s1,4290 <core_list_mergesort+0xe0>
    423c:	0044a583          	lw	a1,4(s1)
    4240:	004a2503          	lw	a0,4(s4)
    4244:	000d0613          	mv	a2,s10
    4248:	000b80e7          	jalr	s7
    424c:	04a05263          	blez	a0,4290 <core_list_mergesort+0xe0>
    4250:	00048793          	mv	a5,s1
    4254:	0004a483          	lw	s1,0(s1)
    4258:	fff98993          	addi	s3,s3,-1
    425c:	02090463          	beqz	s2,4284 <core_list_mergesort+0xd4>
    4260:	00f92023          	sw	a5,0(s2)
    4264:	00078913          	mv	s2,a5
    4268:	fc0416e3          	bnez	s0,4234 <core_list_mergesort+0x84>
    426c:	02098a63          	beqz	s3,42a0 <core_list_mergesort+0xf0>
    4270:	02048a63          	beqz	s1,42a4 <core_list_mergesort+0xf4>
    4274:	00048793          	mv	a5,s1
    4278:	fff98993          	addi	s3,s3,-1
    427c:	0004a483          	lw	s1,0(s1)
    4280:	fe0910e3          	bnez	s2,4260 <core_list_mergesort+0xb0>
    4284:	00078b13          	mv	s6,a5
    4288:	00078913          	mv	s2,a5
    428c:	fddff06f          	j	4268 <core_list_mergesort+0xb8>
    4290:	000a0793          	mv	a5,s4
    4294:	fff40413          	addi	s0,s0,-1
    4298:	000a2a03          	lw	s4,0(s4)
    429c:	fc1ff06f          	j	425c <core_list_mergesort+0xac>
    42a0:	f60494e3          	bnez	s1,4208 <core_list_mergesort+0x58>
    42a4:	00092023          	sw	zero,0(s2)
    42a8:	019c0c63          	beq	s8,s9,42c0 <core_list_mergesort+0x110>
    42ac:	001a9a93          	slli	s5,s5,0x1
    42b0:	000b0493          	mv	s1,s6
    42b4:	f45ff06f          	j	41f8 <core_list_mergesort+0x48>
    42b8:	00002023          	sw	zero,0(zero) # 0 <_start>
    42bc:	00100073          	ebreak
    42c0:	02c12083          	lw	ra,44(sp)
    42c4:	02812403          	lw	s0,40(sp)
    42c8:	02412483          	lw	s1,36(sp)
    42cc:	02012903          	lw	s2,32(sp)
    42d0:	01c12983          	lw	s3,28(sp)
    42d4:	01812a03          	lw	s4,24(sp)
    42d8:	01412a83          	lw	s5,20(sp)
    42dc:	00c12b83          	lw	s7,12(sp)
    42e0:	00812c03          	lw	s8,8(sp)
    42e4:	00412c83          	lw	s9,4(sp)
    42e8:	00012d03          	lw	s10,0(sp)
    42ec:	000b0513          	mv	a0,s6
    42f0:	01012b03          	lw	s6,16(sp)
    42f4:	03010113          	addi	sp,sp,48
    42f8:	00008067          	ret

000042fc <core_bench_list>:
    42fc:	fc010113          	addi	sp,sp,-64
    4300:	01812c23          	sw	s8,24(sp)
    4304:	00451c03          	lh	s8,4(a0)
    4308:	02812c23          	sw	s0,56(sp)
    430c:	03512223          	sw	s5,36(sp)
    4310:	03612023          	sw	s6,32(sp)
    4314:	02112e23          	sw	ra,60(sp)
    4318:	02912a23          	sw	s1,52(sp)
    431c:	03212823          	sw	s2,48(sp)
    4320:	03312623          	sw	s3,44(sp)
    4324:	03412423          	sw	s4,40(sp)
    4328:	01712e23          	sw	s7,28(sp)
    432c:	01912a23          	sw	s9,20(sp)
    4330:	00011623          	sh	zero,12(sp)
    4334:	00b11723          	sh	a1,14(sp)
    4338:	02452403          	lw	s0,36(a0)
    433c:	00050b13          	mv	s6,a0
    4340:	00058a93          	mv	s5,a1
    4344:	21805a63          	blez	s8,4558 <core_bench_list+0x25c>
    4348:	00058c93          	mv	s9,a1
    434c:	00000913          	li	s2,0
    4350:	00000b93          	li	s7,0
    4354:	00000993          	li	s3,0
    4358:	00000493          	li	s1,0
    435c:	00c10a13          	addi	s4,sp,12
    4360:	0ff97793          	andi	a5,s2,255
    4364:	000a0593          	mv	a1,s4
    4368:	00040513          	mv	a0,s0
    436c:	00f11623          	sh	a5,12(sp)
    4370:	dc5ff0ef          	jal	ra,4134 <core_list_find>
    4374:	02040063          	beqz	s0,4394 <core_bench_list+0x98>
    4378:	00000713          	li	a4,0
    437c:	0080006f          	j	4384 <core_bench_list+0x88>
    4380:	00078413          	mv	s0,a5
    4384:	00042783          	lw	a5,0(s0)
    4388:	00e42023          	sw	a4,0(s0)
    438c:	00040713          	mv	a4,s0
    4390:	fe0798e3          	bnez	a5,4380 <core_bench_list+0x84>
    4394:	06050a63          	beqz	a0,4408 <core_bench_list+0x10c>
    4398:	00452783          	lw	a5,4(a0)
    439c:	00198993          	addi	s3,s3,1
    43a0:	01099993          	slli	s3,s3,0x10
    43a4:	00079783          	lh	a5,0(a5)
    43a8:	0109d993          	srli	s3,s3,0x10
    43ac:	0017f713          	andi	a4,a5,1
    43b0:	00070c63          	beqz	a4,43c8 <core_bench_list+0xcc>
    43b4:	4097d793          	srai	a5,a5,0x9
    43b8:	0017f793          	andi	a5,a5,1
    43bc:	00f484b3          	add	s1,s1,a5
    43c0:	01049493          	slli	s1,s1,0x10
    43c4:	0104d493          	srli	s1,s1,0x10
    43c8:	00052783          	lw	a5,0(a0)
    43cc:	00078c63          	beqz	a5,43e4 <core_bench_list+0xe8>
    43d0:	0007a703          	lw	a4,0(a5)
    43d4:	00e52023          	sw	a4,0(a0)
    43d8:	00042703          	lw	a4,0(s0)
    43dc:	00e7a023          	sw	a4,0(a5)
    43e0:	00f42023          	sw	a5,0(s0)
    43e4:	000cc663          	bltz	s9,43f0 <core_bench_list+0xf4>
    43e8:	001c8c93          	addi	s9,s9,1
    43ec:	01911723          	sh	s9,14(sp)
    43f0:	00190913          	addi	s2,s2,1
    43f4:	01091913          	slli	s2,s2,0x10
    43f8:	41095913          	srai	s2,s2,0x10
    43fc:	032c0c63          	beq	s8,s2,4434 <core_bench_list+0x138>
    4400:	00e11c83          	lh	s9,14(sp)
    4404:	f5dff06f          	j	4360 <core_bench_list+0x64>
    4408:	00042783          	lw	a5,0(s0)
    440c:	001b8b93          	addi	s7,s7,1
    4410:	010b9b93          	slli	s7,s7,0x10
    4414:	0047a783          	lw	a5,4(a5)
    4418:	010bdb93          	srli	s7,s7,0x10
    441c:	00178783          	lb	a5,1(a5)
    4420:	0017f793          	andi	a5,a5,1
    4424:	00f484b3          	add	s1,s1,a5
    4428:	01049493          	slli	s1,s1,0x10
    442c:	0104d493          	srli	s1,s1,0x10
    4430:	fb5ff06f          	j	43e4 <core_bench_list+0xe8>
    4434:	00299993          	slli	s3,s3,0x2
    4438:	41798bb3          	sub	s7,s3,s7
    443c:	017484b3          	add	s1,s1,s7
    4440:	01049493          	slli	s1,s1,0x10
    4444:	0104d493          	srli	s1,s1,0x10
    4448:	01505e63          	blez	s5,4464 <core_bench_list+0x168>
    444c:	00040513          	mv	a0,s0
    4450:	000b0613          	mv	a2,s6
    4454:	00000597          	auipc	a1,0x0
    4458:	bd858593          	addi	a1,a1,-1064 # 402c <cmp_complex>
    445c:	d55ff0ef          	jal	ra,41b0 <core_list_mergesort>
    4460:	00050413          	mv	s0,a0
    4464:	00042783          	lw	a5,0(s0)
    4468:	000a0593          	mv	a1,s4
    446c:	00040513          	mv	a0,s0
    4470:	0007a983          	lw	s3,0(a5)
    4474:	0047aa03          	lw	s4,4(a5)
    4478:	0049a683          	lw	a3,4(s3)
    447c:	0009a703          	lw	a4,0(s3)
    4480:	00d7a223          	sw	a3,4(a5)
    4484:	0149a223          	sw	s4,4(s3)
    4488:	00e7a023          	sw	a4,0(a5)
    448c:	0009a023          	sw	zero,0(s3)
    4490:	ca5ff0ef          	jal	ra,4134 <core_list_find>
    4494:	00050913          	mv	s2,a0
    4498:	0a050a63          	beqz	a0,454c <core_bench_list+0x250>
    449c:	00442783          	lw	a5,4(s0)
    44a0:	00048593          	mv	a1,s1
    44a4:	00079503          	lh	a0,0(a5)
    44a8:	f51fd0ef          	jal	ra,23f8 <crc16>
    44ac:	00092903          	lw	s2,0(s2)
    44b0:	00050493          	mv	s1,a0
    44b4:	fe0914e3          	bnez	s2,449c <core_bench_list+0x1a0>
    44b8:	00042903          	lw	s2,0(s0)
    44bc:	0049aa03          	lw	s4,4(s3)
    44c0:	00492703          	lw	a4,4(s2)
    44c4:	00092783          	lw	a5,0(s2)
    44c8:	00040513          	mv	a0,s0
    44cc:	00e9a223          	sw	a4,4(s3)
    44d0:	01492223          	sw	s4,4(s2)
    44d4:	00f9a023          	sw	a5,0(s3)
    44d8:	01392023          	sw	s3,0(s2)
    44dc:	00000613          	li	a2,0
    44e0:	00000597          	auipc	a1,0x0
    44e4:	9bc58593          	addi	a1,a1,-1604 # 3e9c <cmp_idx>
    44e8:	cc9ff0ef          	jal	ra,41b0 <core_list_mergesort>
    44ec:	00052403          	lw	s0,0(a0)
    44f0:	00050913          	mv	s2,a0
    44f4:	02040063          	beqz	s0,4514 <core_bench_list+0x218>
    44f8:	00492783          	lw	a5,4(s2)
    44fc:	00048593          	mv	a1,s1
    4500:	00079503          	lh	a0,0(a5)
    4504:	ef5fd0ef          	jal	ra,23f8 <crc16>
    4508:	00042403          	lw	s0,0(s0)
    450c:	00050493          	mv	s1,a0
    4510:	fe0414e3          	bnez	s0,44f8 <core_bench_list+0x1fc>
    4514:	03c12083          	lw	ra,60(sp)
    4518:	03812403          	lw	s0,56(sp)
    451c:	03012903          	lw	s2,48(sp)
    4520:	02c12983          	lw	s3,44(sp)
    4524:	02812a03          	lw	s4,40(sp)
    4528:	02412a83          	lw	s5,36(sp)
    452c:	02012b03          	lw	s6,32(sp)
    4530:	01c12b83          	lw	s7,28(sp)
    4534:	01812c03          	lw	s8,24(sp)
    4538:	01412c83          	lw	s9,20(sp)
    453c:	00048513          	mv	a0,s1
    4540:	03412483          	lw	s1,52(sp)
    4544:	04010113          	addi	sp,sp,64
    4548:	00008067          	ret
    454c:	00042903          	lw	s2,0(s0)
    4550:	f40916e3          	bnez	s2,449c <core_bench_list+0x1a0>
    4554:	f6dff06f          	j	44c0 <core_bench_list+0x1c4>
    4558:	00000493          	li	s1,0
    455c:	00c10a13          	addi	s4,sp,12
    4560:	ee9ff06f          	j	4448 <core_bench_list+0x14c>

00004564 <core_list_init>:
    4564:	fe010113          	addi	sp,sp,-32
    4568:	01212823          	sw	s2,16(sp)
    456c:	00058913          	mv	s2,a1
    4570:	01400593          	li	a1,20
    4574:	00812c23          	sw	s0,24(sp)
    4578:	01312623          	sw	s3,12(sp)
    457c:	00112e23          	sw	ra,28(sp)
    4580:	00912a23          	sw	s1,20(sp)
    4584:	00060993          	mv	s3,a2
    4588:	124010ef          	jal	ra,56ac <__hidden___udivsi3>
    458c:	ffe50513          	addi	a0,a0,-2
    4590:	00351593          	slli	a1,a0,0x3
    4594:	00b905b3          	add	a1,s2,a1
    4598:	ffff87b7          	lui	a5,0xffff8
    459c:	00092023          	sw	zero,0(s2)
    45a0:	00b92223          	sw	a1,4(s2)
    45a4:	08078713          	addi	a4,a5,128 # ffff8080 <_end+0xffee5c80>
    45a8:	00251e13          	slli	t3,a0,0x2
    45ac:	00e59023          	sh	a4,0(a1)
    45b0:	00059123          	sh	zero,2(a1)
    45b4:	01090693          	addi	a3,s2,16
    45b8:	01c58e33          	add	t3,a1,t3
    45bc:	00890413          	addi	s0,s2,8
    45c0:	00458713          	addi	a4,a1,4
    45c4:	12b6fe63          	bgeu	a3,a1,4700 <core_list_init+0x19c>
    45c8:	00858893          	addi	a7,a1,8
    45cc:	13c8fa63          	bgeu	a7,t3,4700 <core_list_init+0x19c>
    45d0:	00e92623          	sw	a4,12(s2)
    45d4:	00092423          	sw	zero,8(s2)
    45d8:	00892023          	sw	s0,0(s2)
    45dc:	fff7c793          	not	a5,a5
    45e0:	fff00713          	li	a4,-1
    45e4:	00e59223          	sh	a4,4(a1)
    45e8:	00f59323          	sh	a5,6(a1)
    45ec:	06050a63          	beqz	a0,4660 <core_list_init+0xfc>
    45f0:	01099e93          	slli	t4,s3,0x10
    45f4:	ffff8f37          	lui	t5,0xffff8
    45f8:	010ede93          	srli	t4,t4,0x10
    45fc:	00000813          	li	a6,0
    4600:	ffff4f13          	not	t5,t5
    4604:	01081713          	slli	a4,a6,0x10
    4608:	01075713          	srli	a4,a4,0x10
    460c:	00eec7b3          	xor	a5,t4,a4
    4610:	00379793          	slli	a5,a5,0x3
    4614:	00777713          	andi	a4,a4,7
    4618:	0787f793          	andi	a5,a5,120
    461c:	00e7e7b3          	or	a5,a5,a4
    4620:	00879713          	slli	a4,a5,0x8
    4624:	00868313          	addi	t1,a3,8
    4628:	00180813          	addi	a6,a6,1
    462c:	00488613          	addi	a2,a7,4
    4630:	00f767b3          	or	a5,a4,a5
    4634:	02b37463          	bgeu	t1,a1,465c <core_list_init+0xf8>
    4638:	03c67263          	bgeu	a2,t3,465c <core_list_init+0xf8>
    463c:	0086a023          	sw	s0,0(a3)
    4640:	00d92023          	sw	a3,0(s2)
    4644:	0116a223          	sw	a7,4(a3)
    4648:	00f89023          	sh	a5,0(a7)
    464c:	01e89123          	sh	t5,2(a7)
    4650:	00068413          	mv	s0,a3
    4654:	00060893          	mv	a7,a2
    4658:	00030693          	mv	a3,t1
    465c:	fb0514e3          	bne	a0,a6,4604 <core_list_init+0xa0>
    4660:	00042483          	lw	s1,0(s0)
    4664:	06048863          	beqz	s1,46d4 <core_list_init+0x170>
    4668:	00500593          	li	a1,5
    466c:	040010ef          	jal	ra,56ac <__hidden___udivsi3>
    4670:	00004637          	lui	a2,0x4
    4674:	00100693          	li	a3,1
    4678:	fff60613          	addi	a2,a2,-1 # 3fff <calc_func+0x107>
    467c:	01c0006f          	j	4698 <core_list_init+0x134>
    4680:	0004a783          	lw	a5,0(s1)
    4684:	00d71123          	sh	a3,2(a4)
    4688:	00048413          	mv	s0,s1
    468c:	00168693          	addi	a3,a3,1
    4690:	04078263          	beqz	a5,46d4 <core_list_init+0x170>
    4694:	00078493          	mv	s1,a5
    4698:	01069713          	slli	a4,a3,0x10
    469c:	01075713          	srli	a4,a4,0x10
    46a0:	00170793          	addi	a5,a4,1
    46a4:	00879793          	slli	a5,a5,0x8
    46a8:	01374733          	xor	a4,a4,s3
    46ac:	7007f793          	andi	a5,a5,1792
    46b0:	00e7e7b3          	or	a5,a5,a4
    46b4:	00c7f7b3          	and	a5,a5,a2
    46b8:	00442703          	lw	a4,4(s0)
    46bc:	fca6e2e3          	bltu	a3,a0,4680 <core_list_init+0x11c>
    46c0:	00f71123          	sh	a5,2(a4)
    46c4:	0004a783          	lw	a5,0(s1)
    46c8:	00048413          	mv	s0,s1
    46cc:	00168693          	addi	a3,a3,1
    46d0:	fc0792e3          	bnez	a5,4694 <core_list_init+0x130>
    46d4:	01812403          	lw	s0,24(sp)
    46d8:	01c12083          	lw	ra,28(sp)
    46dc:	01412483          	lw	s1,20(sp)
    46e0:	00c12983          	lw	s3,12(sp)
    46e4:	00090513          	mv	a0,s2
    46e8:	01012903          	lw	s2,16(sp)
    46ec:	00000613          	li	a2,0
    46f0:	fffff597          	auipc	a1,0xfffff
    46f4:	7ac58593          	addi	a1,a1,1964 # 3e9c <cmp_idx>
    46f8:	02010113          	addi	sp,sp,32
    46fc:	ab5ff06f          	j	41b0 <core_list_mergesort>
    4700:	00040693          	mv	a3,s0
    4704:	00070893          	mv	a7,a4
    4708:	00000413          	li	s0,0
    470c:	ee1ff06f          	j	45ec <core_list_init+0x88>

00004710 <__am_timer_init>:
    4710:	00008067          	ret

00004714 <__am_timer_uptime>:
    4714:	004007b7          	lui	a5,0x400
    4718:	0087a783          	lw	a5,8(a5) # 400008 <_end+0x2edc08>
    471c:	00052223          	sw	zero,4(a0)
    4720:	00f52023          	sw	a5,0(a0)
    4724:	00008067          	ret

00004728 <get_second>:
    4728:	004007b7          	lui	a5,0x400
    472c:	0007a503          	lw	a0,0(a5) # 400000 <_end+0x2edc00>
    4730:	00008067          	ret

00004734 <__am_timer_rtc>:
    4734:	76c00793          	li	a5,1900
    4738:	00052a23          	sw	zero,20(a0)
    473c:	00052823          	sw	zero,16(a0)
    4740:	00052623          	sw	zero,12(a0)
    4744:	00052423          	sw	zero,8(a0)
    4748:	00052223          	sw	zero,4(a0)
    474c:	00f52023          	sw	a5,0(a0)
    4750:	00008067          	ret

00004754 <change_vga>:
    4754:	0ff57513          	andi	a0,a0,255
    4758:	009007b7          	lui	a5,0x900
    475c:	00a78023          	sb	a0,0(a5) # 900000 <_end+0x7edc00>
    4760:	00008067          	ret

00004764 <__am_gpu_init>:
    4764:	00008067          	ret

00004768 <__am_gpu_config>:
    4768:	000fc797          	auipc	a5,0xfc
    476c:	42478793          	addi	a5,a5,1060 # 100b8c <errpat+0x10>
    4770:	0007a603          	lw	a2,0(a5)
    4774:	0047a683          	lw	a3,4(a5)
    4778:	0087a703          	lw	a4,8(a5)
    477c:	00c7a783          	lw	a5,12(a5)
    4780:	00c52023          	sw	a2,0(a0)
    4784:	00d52223          	sw	a3,4(a0)
    4788:	00e52423          	sw	a4,8(a0)
    478c:	00f52623          	sw	a5,12(a0)
    4790:	00008067          	ret

00004794 <__am_gpu_fbdraw>:
    4794:	01052783          	lw	a5,16(a0)
    4798:	0af05663          	blez	a5,4844 <__am_gpu_fbdraw+0xb0>
    479c:	fe010113          	addi	sp,sp,-32
    47a0:	01312623          	sw	s3,12(sp)
    47a4:	00050993          	mv	s3,a0
    47a8:	00c52503          	lw	a0,12(a0)
    47ac:	00912a23          	sw	s1,20(sp)
    47b0:	01412423          	sw	s4,8(sp)
    47b4:	00112e23          	sw	ra,28(sp)
    47b8:	00812c23          	sw	s0,24(sp)
    47bc:	01212823          	sw	s2,16(sp)
    47c0:	00000a13          	li	s4,0
    47c4:	008004b7          	lui	s1,0x800
    47c8:	04a05a63          	blez	a0,481c <__am_gpu_fbdraw+0x88>
    47cc:	0089a403          	lw	s0,8(s3)
    47d0:	00000913          	li	s2,0
    47d4:	000a0593          	mv	a1,s4
    47d8:	781000ef          	jal	ra,5758 <__mulsi3>
    47dc:	0009a783          	lw	a5,0(s3)
    47e0:	01250733          	add	a4,a0,s2
    47e4:	0049a683          	lw	a3,4(s3)
    47e8:	00f907b3          	add	a5,s2,a5
    47ec:	00271713          	slli	a4,a4,0x2
    47f0:	00e40733          	add	a4,s0,a4
    47f4:	00979793          	slli	a5,a5,0x9
    47f8:	00072703          	lw	a4,0(a4)
    47fc:	009787b3          	add	a5,a5,s1
    4800:	00d787b3          	add	a5,a5,a3
    4804:	014787b3          	add	a5,a5,s4
    4808:	00e7a023          	sw	a4,0(a5)
    480c:	00c9a503          	lw	a0,12(s3)
    4810:	00190913          	addi	s2,s2,1
    4814:	fca940e3          	blt	s2,a0,47d4 <__am_gpu_fbdraw+0x40>
    4818:	0109a783          	lw	a5,16(s3)
    481c:	001a0a13          	addi	s4,s4,1
    4820:	fafa44e3          	blt	s4,a5,47c8 <__am_gpu_fbdraw+0x34>
    4824:	01c12083          	lw	ra,28(sp)
    4828:	01812403          	lw	s0,24(sp)
    482c:	01412483          	lw	s1,20(sp)
    4830:	01012903          	lw	s2,16(sp)
    4834:	00c12983          	lw	s3,12(sp)
    4838:	00812a03          	lw	s4,8(sp)
    483c:	02010113          	addi	sp,sp,32
    4840:	00008067          	ret
    4844:	00008067          	ret

00004848 <__am_gpu_status>:
    4848:	00100793          	li	a5,1
    484c:	00f50023          	sb	a5,0(a0)
    4850:	00008067          	ret

00004854 <__am_timer_config>:
    4854:	00100793          	li	a5,1
    4858:	00f50023          	sb	a5,0(a0)
    485c:	00f500a3          	sb	a5,1(a0)
    4860:	00008067          	ret

00004864 <__am_input_config>:
    4864:	00100793          	li	a5,1
    4868:	00f50023          	sb	a5,0(a0)
    486c:	00008067          	ret

00004870 <__am_uart_config>:
    4870:	00050023          	sb	zero,0(a0)
    4874:	00008067          	ret

00004878 <fail>:
    4878:	ff010113          	addi	sp,sp,-16
    487c:	00812423          	sw	s0,8(sp)
    4880:	00112623          	sw	ra,12(sp)
    4884:	000fc417          	auipc	s0,0xfc
    4888:	31840413          	addi	s0,s0,792 # 100b9c <errpat+0x20>
    488c:	04100513          	li	a0,65
    4890:	00140413          	addi	s0,s0,1
    4894:	218000ef          	jal	ra,4aac <putch>
    4898:	00044503          	lbu	a0,0(s0)
    489c:	fe051ae3          	bnez	a0,4890 <fail+0x18>
    48a0:	000fc417          	auipc	s0,0xfc
    48a4:	30840413          	addi	s0,s0,776 # 100ba8 <errpat+0x2c>
    48a8:	06100513          	li	a0,97
    48ac:	00140413          	addi	s0,s0,1
    48b0:	1fc000ef          	jal	ra,4aac <putch>
    48b4:	00044503          	lbu	a0,0(s0)
    48b8:	fe051ae3          	bnez	a0,48ac <fail+0x34>
    48bc:	000fc417          	auipc	s0,0xfc
    48c0:	30840413          	addi	s0,s0,776 # 100bc4 <errpat+0x48>
    48c4:	02000513          	li	a0,32
    48c8:	00140413          	addi	s0,s0,1
    48cc:	1e0000ef          	jal	ra,4aac <putch>
    48d0:	00044503          	lbu	a0,0(s0)
    48d4:	fe051ae3          	bnez	a0,48c8 <fail+0x50>
    48d8:	00100513          	li	a0,1
    48dc:	2bc000ef          	jal	ra,4b98 <halt>

000048e0 <__am_audio_init>:
    48e0:	00008067          	ret

000048e4 <ioe_init>:
    48e4:	ff010113          	addi	sp,sp,-16
    48e8:	00112623          	sw	ra,12(sp)
    48ec:	000fd797          	auipc	a5,0xfd
    48f0:	a0078793          	addi	a5,a5,-1536 # 1012ec <lut>
    48f4:	000fd697          	auipc	a3,0xfd
    48f8:	bf868693          	addi	a3,a3,-1032 # 1014ec <default_num_contexts>
    48fc:	00000617          	auipc	a2,0x0
    4900:	f7c60613          	addi	a2,a2,-132 # 4878 <fail>
    4904:	00c0006f          	j	4910 <ioe_init+0x2c>
    4908:	00478793          	addi	a5,a5,4
    490c:	00d78c63          	beq	a5,a3,4924 <ioe_init+0x40>
    4910:	0007a703          	lw	a4,0(a5)
    4914:	fe071ae3          	bnez	a4,4908 <ioe_init+0x24>
    4918:	00c7a023          	sw	a2,0(a5)
    491c:	00478793          	addi	a5,a5,4
    4920:	fed798e3          	bne	a5,a3,4910 <ioe_init+0x2c>
    4924:	e41ff0ef          	jal	ra,4764 <__am_gpu_init>
    4928:	de9ff0ef          	jal	ra,4710 <__am_timer_init>
    492c:	00c12083          	lw	ra,12(sp)
    4930:	00100513          	li	a0,1
    4934:	01010113          	addi	sp,sp,16
    4938:	00008067          	ret

0000493c <ioe_read>:
    493c:	00251793          	slli	a5,a0,0x2
    4940:	000fd517          	auipc	a0,0xfd
    4944:	9ac50513          	addi	a0,a0,-1620 # 1012ec <lut>
    4948:	00f50533          	add	a0,a0,a5
    494c:	00052303          	lw	t1,0(a0)
    4950:	00058513          	mv	a0,a1
    4954:	00030067          	jr	t1

00004958 <ioe_write>:
    4958:	fe5ff06f          	j	493c <ioe_read>

0000495c <__am_input_keybrd>:
    495c:	00300737          	lui	a4,0x300
    4960:	00074783          	lbu	a5,0(a4) # 300000 <_end+0x1edc00>
    4964:	0ff7f793          	andi	a5,a5,255
    4968:	02078e63          	beqz	a5,49a4 <__am_input_keybrd+0x48>
    496c:	00474683          	lbu	a3,4(a4)
    4970:	0f000613          	li	a2,240
    4974:	00168693          	addi	a3,a3,1
    4978:	0ff6f693          	andi	a3,a3,255
    497c:	00d70223          	sb	a3,4(a4)
    4980:	02c78863          	beq	a5,a2,49b0 <__am_input_keybrd+0x54>
    4984:	000fc717          	auipc	a4,0xfc
    4988:	25870713          	addi	a4,a4,600 # 100bdc <table>
    498c:	00f707b3          	add	a5,a4,a5
    4990:	0007c783          	lbu	a5,0(a5)
    4994:	00100713          	li	a4,1
    4998:	00e50023          	sb	a4,0(a0)
    499c:	00f52223          	sw	a5,4(a0)
    49a0:	00008067          	ret
    49a4:	00050023          	sb	zero,0(a0)
    49a8:	00052223          	sw	zero,4(a0)
    49ac:	00008067          	ret
    49b0:	00050023          	sb	zero,0(a0)
    49b4:	00074783          	lbu	a5,0(a4)
    49b8:	003006b7          	lui	a3,0x300
    49bc:	0ff7f793          	andi	a5,a5,255
    49c0:	02078663          	beqz	a5,49ec <__am_input_keybrd+0x90>
    49c4:	00474683          	lbu	a3,4(a4)
    49c8:	00168693          	addi	a3,a3,1 # 300001 <_end+0x1edc01>
    49cc:	0ff6f693          	andi	a3,a3,255
    49d0:	00d70223          	sb	a3,4(a4)
    49d4:	000fc717          	auipc	a4,0xfc
    49d8:	20870713          	addi	a4,a4,520 # 100bdc <table>
    49dc:	00f707b3          	add	a5,a4,a5
    49e0:	0007c783          	lbu	a5,0(a5)
    49e4:	00f52223          	sw	a5,4(a0)
    49e8:	00008067          	ret
    49ec:	0006c783          	lbu	a5,0(a3)
    49f0:	0ff7f793          	andi	a5,a5,255
    49f4:	fe078ce3          	beqz	a5,49ec <__am_input_keybrd+0x90>
    49f8:	0046c703          	lbu	a4,4(a3)
    49fc:	00170713          	addi	a4,a4,1
    4a00:	0ff77713          	andi	a4,a4,255
    4a04:	00e68223          	sb	a4,4(a3)
    4a08:	000fc717          	auipc	a4,0xfc
    4a0c:	1d470713          	addi	a4,a4,468 # 100bdc <table>
    4a10:	00f707b3          	add	a5,a4,a5
    4a14:	0007c783          	lbu	a5,0(a5)
    4a18:	00f52223          	sw	a5,4(a0)
    4a1c:	00008067          	ret

00004a20 <read_scancode.part.0>:
    4a20:	00300737          	lui	a4,0x300
    4a24:	00474783          	lbu	a5,4(a4) # 300004 <_end+0x1edc04>
    4a28:	00178793          	addi	a5,a5,1
    4a2c:	0ff7f793          	andi	a5,a5,255
    4a30:	00f70223          	sb	a5,4(a4)
    4a34:	00008067          	ret

00004a38 <putch.part.0>:
    4a38:	00102717          	auipc	a4,0x102
    4a3c:	35070713          	addi	a4,a4,848 # 106d88 <vga_line>
    4a40:	00072783          	lw	a5,0(a4)
    4a44:	01d00693          	li	a3,29
    4a48:	02d78463          	beq	a5,a3,4a70 <putch.part.0+0x38>
    4a4c:	00178793          	addi	a5,a5,1
    4a50:	00f72023          	sw	a5,0(a4)
    4a54:	00102797          	auipc	a5,0x102
    4a58:	3207a823          	sw	zero,816(a5) # 106d84 <vga_ch>
    4a5c:	00a007b7          	lui	a5,0xa00
    4a60:	0007a223          	sw	zero,4(a5) # a00004 <_end+0x8edc04>
    4a64:	00072703          	lw	a4,0(a4)
    4a68:	00e7a023          	sw	a4,0(a5)
    4a6c:	00008067          	ret
    4a70:	00102697          	auipc	a3,0x102
    4a74:	31068693          	addi	a3,a3,784 # 106d80 <start_line>
    4a78:	0006a783          	lw	a5,0(a3)
    4a7c:	00178793          	addi	a5,a5,1
    4a80:	00f6a023          	sw	a5,0(a3)
    4a84:	00a006b7          	lui	a3,0xa00
    4a88:	00f6a423          	sw	a5,8(a3) # a00008 <_end+0x8edc08>
    4a8c:	00102797          	auipc	a5,0x102
    4a90:	2e07ac23          	sw	zero,760(a5) # 106d84 <vga_ch>
    4a94:	00a007b7          	lui	a5,0xa00
    4a98:	0007a223          	sw	zero,4(a5) # a00004 <_end+0x8edc04>
    4a9c:	00072703          	lw	a4,0(a4)
    4aa0:	00e7a023          	sw	a4,0(a5)
    4aa4:	00008067          	ret

00004aa8 <set_font_vmem>:
    4aa8:	00008067          	ret

00004aac <putch>:
    4aac:	00800793          	li	a5,8
    4ab0:	08f50863          	beq	a0,a5,4b40 <putch+0x94>
    4ab4:	00a00793          	li	a5,10
    4ab8:	0af50463          	beq	a0,a5,4b60 <putch+0xb4>
    4abc:	00102617          	auipc	a2,0x102
    4ac0:	2cc60613          	addi	a2,a2,716 # 106d88 <vga_line>
    4ac4:	00102597          	auipc	a1,0x102
    4ac8:	2bc58593          	addi	a1,a1,700 # 106d80 <start_line>
    4acc:	0005a683          	lw	a3,0(a1)
    4ad0:	00102717          	auipc	a4,0x102
    4ad4:	2b470713          	addi	a4,a4,692 # 106d84 <vga_ch>
    4ad8:	00062783          	lw	a5,0(a2)
    4adc:	00072803          	lw	a6,0(a4)
    4ae0:	00d787b3          	add	a5,a5,a3
    4ae4:	002006b7          	lui	a3,0x200
    4ae8:	010686b3          	add	a3,a3,a6
    4aec:	00779793          	slli	a5,a5,0x7
    4af0:	00d787b3          	add	a5,a5,a3
    4af4:	00a78023          	sb	a0,0(a5)
    4af8:	00072783          	lw	a5,0(a4)
    4afc:	04500693          	li	a3,69
    4b00:	00178793          	addi	a5,a5,1
    4b04:	00f72023          	sw	a5,0(a4)
    4b08:	02f6f263          	bgeu	a3,a5,4b2c <putch+0x80>
    4b0c:	00062783          	lw	a5,0(a2)
    4b10:	01d00713          	li	a4,29
    4b14:	04e78863          	beq	a5,a4,4b64 <putch+0xb8>
    4b18:	00178793          	addi	a5,a5,1
    4b1c:	00f62023          	sw	a5,0(a2)
    4b20:	00102797          	auipc	a5,0x102
    4b24:	2607a223          	sw	zero,612(a5) # 106d84 <vga_ch>
    4b28:	00000793          	li	a5,0
    4b2c:	00a00737          	lui	a4,0xa00
    4b30:	00f72223          	sw	a5,4(a4) # a00004 <_end+0x8edc04>
    4b34:	00062783          	lw	a5,0(a2)
    4b38:	00f72023          	sw	a5,0(a4)
    4b3c:	00008067          	ret
    4b40:	00102717          	auipc	a4,0x102
    4b44:	24470713          	addi	a4,a4,580 # 106d84 <vga_ch>
    4b48:	00072783          	lw	a5,0(a4)
    4b4c:	00178793          	addi	a5,a5,1
    4b50:	00f72023          	sw	a5,0(a4)
    4b54:	00a00737          	lui	a4,0xa00
    4b58:	00f72223          	sw	a5,4(a4) # a00004 <_end+0x8edc04>
    4b5c:	00008067          	ret
    4b60:	ed9ff06f          	j	4a38 <putch.part.0>
    4b64:	0005a703          	lw	a4,0(a1)
    4b68:	00a006b7          	lui	a3,0xa00
    4b6c:	00000793          	li	a5,0
    4b70:	00170713          	addi	a4,a4,1
    4b74:	00e5a023          	sw	a4,0(a1)
    4b78:	00e6a423          	sw	a4,8(a3) # a00008 <_end+0x8edc08>
    4b7c:	00102717          	auipc	a4,0x102
    4b80:	20072423          	sw	zero,520(a4) # 106d84 <vga_ch>
    4b84:	00a00737          	lui	a4,0xa00
    4b88:	00f72223          	sw	a5,4(a4) # a00004 <_end+0x8edc04>
    4b8c:	00062783          	lw	a5,0(a2)
    4b90:	00f72023          	sw	a5,0(a4)
    4b94:	00008067          	ret

00004b98 <halt>:
    4b98:	ff010113          	addi	sp,sp,-16
    4b9c:	00812423          	sw	s0,8(sp)
    4ba0:	00112623          	sw	ra,12(sp)
    4ba4:	00100713          	li	a4,1
    4ba8:	000fc417          	auipc	s0,0xfc
    4bac:	13c40413          	addi	s0,s0,316 # 100ce4 <table+0x108>
    4bb0:	06e00793          	li	a5,110
    4bb4:	00e50e63          	beq	a0,a4,4bd0 <halt+0x38>
    4bb8:	00078513          	mv	a0,a5
    4bbc:	00140413          	addi	s0,s0,1
    4bc0:	eedff0ef          	jal	ra,4aac <putch>
    4bc4:	00044783          	lbu	a5,0(s0)
    4bc8:	fe0798e3          	bnez	a5,4bb8 <halt+0x20>
    4bcc:	0000006f          	j	4bcc <halt+0x34>
    4bd0:	000fc417          	auipc	s0,0xfc
    4bd4:	10c40413          	addi	s0,s0,268 # 100cdc <table+0x100>
    4bd8:	06500513          	li	a0,101
    4bdc:	00140413          	addi	s0,s0,1
    4be0:	ecdff0ef          	jal	ra,4aac <putch>
    4be4:	00044503          	lbu	a0,0(s0)
    4be8:	fe051ae3          	bnez	a0,4bdc <halt+0x44>
    4bec:	fe1ff06f          	j	4bcc <halt+0x34>

00004bf0 <_trm_init>:
    4bf0:	ff010113          	addi	sp,sp,-16
    4bf4:	00112623          	sw	ra,12(sp)
    4bf8:	c2dfe0ef          	jal	ra,3824 <main>
    4bfc:	f9dff0ef          	jal	ra,4b98 <halt>

00004c00 <buff_init>:
    4c00:	00102797          	auipc	a5,0x102
    4c04:	f8478793          	addi	a5,a5,-124 # 106b84 <key_buff>
    4c08:	0c07a423          	sw	zero,200(a5)
    4c0c:	0c07a623          	sw	zero,204(a5)
    4c10:	00008067          	ret

00004c14 <getchar>:
    4c14:	fc010113          	addi	sp,sp,-64
    4c18:	02912a23          	sw	s1,52(sp)
    4c1c:	00102497          	auipc	s1,0x102
    4c20:	f6848493          	addi	s1,s1,-152 # 106b84 <key_buff>
    4c24:	0c84a503          	lw	a0,200(s1)
    4c28:	0cc4a783          	lw	a5,204(s1)
    4c2c:	02112e23          	sw	ra,60(sp)
    4c30:	02812c23          	sw	s0,56(sp)
    4c34:	03212823          	sw	s2,48(sp)
    4c38:	03312623          	sw	s3,44(sp)
    4c3c:	03412423          	sw	s4,40(sp)
    4c40:	03512223          	sw	s5,36(sp)
    4c44:	03612023          	sw	s6,32(sp)
    4c48:	01712e23          	sw	s7,28(sp)
    4c4c:	01812c23          	sw	s8,24(sp)
    4c50:	01912a23          	sw	s9,20(sp)
    4c54:	01a12823          	sw	s10,16(sp)
    4c58:	01b12623          	sw	s11,12(sp)
    4c5c:	02f50063          	beq	a0,a5,4c7c <getchar+0x68>
    4c60:	00a487b3          	add	a5,s1,a0
    4c64:	0007c403          	lbu	s0,0(a5)
    4c68:	0c800593          	li	a1,200
    4c6c:	00150513          	addi	a0,a0,1
    4c70:	285000ef          	jal	ra,56f4 <__umodsi3>
    4c74:	0ca4a423          	sw	a0,200(s1)
    4c78:	24041663          	bnez	s0,4ec4 <getchar+0x2b0>
    4c7c:	000fcc97          	auipc	s9,0xfc
    4c80:	14cc8c93          	addi	s9,s9,332 # 100dc8 <table>
    4c84:	00102997          	auipc	s3,0x102
    4c88:	0ec98993          	addi	s3,s3,236 # 106d70 <is_shift>
    4c8c:	000fcc17          	auipc	s8,0xfc
    4c90:	060c0c13          	addi	s8,s8,96 # 100cec <table+0x110>
    4c94:	00102b17          	auipc	s6,0x102
    4c98:	0e0b0b13          	addi	s6,s6,224 # 106d74 <is_capslk>
    4c9c:	00300937          	lui	s2,0x300
    4ca0:	00102a17          	auipc	s4,0x102
    4ca4:	0e0a0a13          	addi	s4,s4,224 # 106d80 <start_line>
    4ca8:	00102b97          	auipc	s7,0x102
    4cac:	0e0b8b93          	addi	s7,s7,224 # 106d88 <vga_line>
    4cb0:	00102a97          	auipc	s5,0x102
    4cb4:	0d4a8a93          	addi	s5,s5,212 # 106d84 <vga_ch>
    4cb8:	00094403          	lbu	s0,0(s2) # 300000 <_end+0x1edc00>
    4cbc:	0ff47413          	andi	s0,s0,255
    4cc0:	fe040ce3          	beqz	s0,4cb8 <getchar+0xa4>
    4cc4:	d5dff0ef          	jal	ra,4a20 <read_scancode.part.0>
    4cc8:	05a00793          	li	a5,90
    4ccc:	1af40663          	beq	s0,a5,4e78 <getchar+0x264>
    4cd0:	1087fe63          	bgeu	a5,s0,4dec <getchar+0x1d8>
    4cd4:	0e000793          	li	a5,224
    4cd8:	04f40063          	beq	s0,a5,4d18 <getchar+0x104>
    4cdc:	0f000793          	li	a5,240
    4ce0:	08f41863          	bne	s0,a5,4d70 <getchar+0x15c>
    4ce4:	00094403          	lbu	s0,0(s2)
    4ce8:	0ff47413          	andi	s0,s0,255
    4cec:	fe040ce3          	beqz	s0,4ce4 <getchar+0xd0>
    4cf0:	d31ff0ef          	jal	ra,4a20 <read_scancode.part.0>
    4cf4:	01200793          	li	a5,18
    4cf8:	00f40663          	beq	s0,a5,4d04 <getchar+0xf0>
    4cfc:	05900793          	li	a5,89
    4d00:	faf41ce3          	bne	s0,a5,4cb8 <getchar+0xa4>
    4d04:	0009a703          	lw	a4,0(s3)
    4d08:	00100793          	li	a5,1
    4d0c:	40e787b3          	sub	a5,a5,a4
    4d10:	00f9a023          	sw	a5,0(s3)
    4d14:	fa5ff06f          	j	4cb8 <getchar+0xa4>
    4d18:	00094403          	lbu	s0,0(s2)
    4d1c:	0ff47413          	andi	s0,s0,255
    4d20:	fe040ce3          	beqz	s0,4d18 <getchar+0x104>
    4d24:	cfdff0ef          	jal	ra,4a20 <read_scancode.part.0>
    4d28:	0f000793          	li	a5,240
    4d2c:	02f40863          	beq	s0,a5,4d5c <getchar+0x148>
    4d30:	07200793          	li	a5,114
    4d34:	22f40863          	beq	s0,a5,4f64 <getchar+0x350>
    4d38:	07500793          	li	a5,117
    4d3c:	f6f41ee3          	bne	s0,a5,4cb8 <getchar+0xa4>
    4d40:	000a2783          	lw	a5,0(s4)
    4d44:	f6078ae3          	beqz	a5,4cb8 <getchar+0xa4>
    4d48:	fff78793          	addi	a5,a5,-1
    4d4c:	00fa2023          	sw	a5,0(s4)
    4d50:	00a00737          	lui	a4,0xa00
    4d54:	00f72423          	sw	a5,8(a4) # a00008 <_end+0x8edc08>
    4d58:	f61ff06f          	j	4cb8 <getchar+0xa4>
    4d5c:	00094783          	lbu	a5,0(s2)
    4d60:	0ff7f793          	andi	a5,a5,255
    4d64:	fe078ce3          	beqz	a5,4d5c <getchar+0x148>
    4d68:	cb9ff0ef          	jal	ra,4a20 <read_scancode.part.0>
    4d6c:	f4dff06f          	j	4cb8 <getchar+0xa4>
    4d70:	06600793          	li	a5,102
    4d74:	08f41863          	bne	s0,a5,4e04 <getchar+0x1f0>
    4d78:	0c84a703          	lw	a4,200(s1)
    4d7c:	0cc4a783          	lw	a5,204(s1)
    4d80:	f2f70ce3          	beq	a4,a5,4cb8 <getchar+0xa4>
    4d84:	000ba703          	lw	a4,0(s7)
    4d88:	000a2783          	lw	a5,0(s4)
    4d8c:	00100613          	li	a2,1
    4d90:	000aa683          	lw	a3,0(s5)
    4d94:	00e787b3          	add	a5,a5,a4
    4d98:	00279713          	slli	a4,a5,0x2
    4d9c:	00e48733          	add	a4,s1,a4
    4da0:	0d072703          	lw	a4,208(a4)
    4da4:	18c70663          	beq	a4,a2,4f30 <getchar+0x31c>
    4da8:	18069863          	bnez	a3,4f38 <getchar+0x324>
    4dac:	04500793          	li	a5,69
    4db0:	00faa023          	sw	a5,0(s5)
    4db4:	00a00737          	lui	a4,0xa00
    4db8:	00f72223          	sw	a5,4(a4) # a00004 <_end+0x8edc04>
    4dbc:	000ba783          	lw	a5,0(s7)
    4dc0:	1e078863          	beqz	a5,4fb0 <getchar+0x39c>
    4dc4:	fff78793          	addi	a5,a5,-1
    4dc8:	00fba023          	sw	a5,0(s7)
    4dcc:	00a00737          	lui	a4,0xa00
    4dd0:	00f72023          	sw	a5,0(a4) # a00000 <_end+0x8edc00>
    4dd4:	0cc4a503          	lw	a0,204(s1)
    4dd8:	0c800593          	li	a1,200
    4ddc:	fff50513          	addi	a0,a0,-1
    4de0:	115000ef          	jal	ra,56f4 <__umodsi3>
    4de4:	0ca4a623          	sw	a0,204(s1)
    4de8:	ed1ff06f          	j	4cb8 <getchar+0xa4>
    4dec:	05800793          	li	a5,88
    4df0:	06f40a63          	beq	s0,a5,4e64 <getchar+0x250>
    4df4:	05900793          	li	a5,89
    4df8:	f0f406e3          	beq	s0,a5,4d04 <getchar+0xf0>
    4dfc:	01200793          	li	a5,18
    4e00:	f0f402e3          	beq	s0,a5,4d04 <getchar+0xf0>
    4e04:	008c8433          	add	s0,s9,s0
    4e08:	00044403          	lbu	s0,0(s0)
    4e0c:	01900693          	li	a3,25
    4e10:	0009a703          	lw	a4,0(s3)
    4e14:	f9f40793          	addi	a5,s0,-97
    4e18:	0ff7f793          	andi	a5,a5,255
    4e1c:	0ef6e863          	bltu	a3,a5,4f0c <getchar+0x2f8>
    4e20:	00100793          	li	a5,1
    4e24:	000b2683          	lw	a3,0(s6)
    4e28:	1af70063          	beq	a4,a5,4fc8 <getchar+0x3b4>
    4e2c:	1af68663          	beq	a3,a5,4fd8 <getchar+0x3c4>
    4e30:	0cc4ad83          	lw	s11,204(s1)
    4e34:	0c800593          	li	a1,200
    4e38:	001d8513          	addi	a0,s11,1
    4e3c:	0b9000ef          	jal	ra,56f4 <__umodsi3>
    4e40:	0c84a783          	lw	a5,200(s1)
    4e44:	00050d13          	mv	s10,a0
    4e48:	e6f508e3          	beq	a0,a5,4cb8 <getchar+0xa4>
    4e4c:	00040513          	mv	a0,s0
    4e50:	01b48db3          	add	s11,s1,s11
    4e54:	c59ff0ef          	jal	ra,4aac <putch>
    4e58:	008d8023          	sb	s0,0(s11)
    4e5c:	0da4a623          	sw	s10,204(s1)
    4e60:	e59ff06f          	j	4cb8 <getchar+0xa4>
    4e64:	000b2703          	lw	a4,0(s6)
    4e68:	00100793          	li	a5,1
    4e6c:	40e787b3          	sub	a5,a5,a4
    4e70:	00fb2023          	sw	a5,0(s6)
    4e74:	e45ff06f          	j	4cb8 <getchar+0xa4>
    4e78:	0cc4a903          	lw	s2,204(s1)
    4e7c:	0c800593          	li	a1,200
    4e80:	00190513          	addi	a0,s2,1
    4e84:	071000ef          	jal	ra,56f4 <__umodsi3>
    4e88:	0c84aa03          	lw	s4,200(s1)
    4e8c:	00050413          	mv	s0,a0
    4e90:	07450a63          	beq	a0,s4,4f04 <getchar+0x2f0>
    4e94:	ba5ff0ef          	jal	ra,4a38 <putch.part.0>
    4e98:	01248933          	add	s2,s1,s2
    4e9c:	00a00793          	li	a5,10
    4ea0:	00f90023          	sb	a5,0(s2)
    4ea4:	0c84a623          	sw	s0,204(s1)
    4ea8:	014487b3          	add	a5,s1,s4
    4eac:	0007c403          	lbu	s0,0(a5)
    4eb0:	0c800593          	li	a1,200
    4eb4:	001a0513          	addi	a0,s4,1
    4eb8:	03d000ef          	jal	ra,56f4 <__umodsi3>
    4ebc:	0ca4a423          	sw	a0,200(s1)
    4ec0:	dc040ee3          	beqz	s0,4c9c <getchar+0x88>
    4ec4:	03c12083          	lw	ra,60(sp)
    4ec8:	00040513          	mv	a0,s0
    4ecc:	03812403          	lw	s0,56(sp)
    4ed0:	03412483          	lw	s1,52(sp)
    4ed4:	03012903          	lw	s2,48(sp)
    4ed8:	02c12983          	lw	s3,44(sp)
    4edc:	02812a03          	lw	s4,40(sp)
    4ee0:	02412a83          	lw	s5,36(sp)
    4ee4:	02012b03          	lw	s6,32(sp)
    4ee8:	01c12b83          	lw	s7,28(sp)
    4eec:	01812c03          	lw	s8,24(sp)
    4ef0:	01412c83          	lw	s9,20(sp)
    4ef4:	01012d03          	lw	s10,16(sp)
    4ef8:	00c12d83          	lw	s11,12(sp)
    4efc:	04010113          	addi	sp,sp,64
    4f00:	00008067          	ret
    4f04:	d9490ce3          	beq	s2,s4,4c9c <getchar+0x88>
    4f08:	fa1ff06f          	j	4ea8 <getchar+0x294>
    4f0c:	fd040793          	addi	a5,s0,-48
    4f10:	0ff7f613          	andi	a2,a5,255
    4f14:	00900693          	li	a3,9
    4f18:	06c6e263          	bltu	a3,a2,4f7c <getchar+0x368>
    4f1c:	00100693          	li	a3,1
    4f20:	f0d718e3          	bne	a4,a3,4e30 <getchar+0x21c>
    4f24:	00fc87b3          	add	a5,s9,a5
    4f28:	1007c403          	lbu	s0,256(a5)
    4f2c:	f05ff06f          	j	4e30 <getchar+0x21c>
    4f30:	00900713          	li	a4,9
    4f34:	d8d772e3          	bgeu	a4,a3,4cb8 <getchar+0xa4>
    4f38:	00200737          	lui	a4,0x200
    4f3c:	00e686b3          	add	a3,a3,a4
    4f40:	00779793          	slli	a5,a5,0x7
    4f44:	00d787b3          	add	a5,a5,a3
    4f48:	00078023          	sb	zero,0(a5)
    4f4c:	000aa783          	lw	a5,0(s5)
    4f50:	00a00737          	lui	a4,0xa00
    4f54:	fff78793          	addi	a5,a5,-1
    4f58:	00faa023          	sw	a5,0(s5)
    4f5c:	00f72223          	sw	a5,4(a4) # a00004 <_end+0x8edc04>
    4f60:	e75ff06f          	j	4dd4 <getchar+0x1c0>
    4f64:	000a2783          	lw	a5,0(s4)
    4f68:	00a00737          	lui	a4,0xa00
    4f6c:	00178793          	addi	a5,a5,1
    4f70:	00fa2023          	sw	a5,0(s4)
    4f74:	00f72423          	sw	a5,8(a4) # a00008 <_end+0x8edc08>
    4f78:	d41ff06f          	j	4cb8 <getchar+0xa4>
    4f7c:	00100793          	li	a5,1
    4f80:	eaf718e3          	bne	a4,a5,4e30 <getchar+0x21c>
    4f84:	fd940793          	addi	a5,s0,-39
    4f88:	0ff7f793          	andi	a5,a5,255
    4f8c:	03600713          	li	a4,54
    4f90:	eaf760e3          	bltu	a4,a5,4e30 <getchar+0x21c>
    4f94:	00279793          	slli	a5,a5,0x2
    4f98:	018787b3          	add	a5,a5,s8
    4f9c:	0007a783          	lw	a5,0(a5)
    4fa0:	018787b3          	add	a5,a5,s8
    4fa4:	00078067          	jr	a5
    4fa8:	05f00413          	li	s0,95
    4fac:	e85ff06f          	j	4e30 <getchar+0x21c>
    4fb0:	000a2783          	lw	a5,0(s4)
    4fb4:	e20780e3          	beqz	a5,4dd4 <getchar+0x1c0>
    4fb8:	fff78793          	addi	a5,a5,-1
    4fbc:	00fa2023          	sw	a5,0(s4)
    4fc0:	00f72423          	sw	a5,8(a4)
    4fc4:	e11ff06f          	j	4dd4 <getchar+0x1c0>
    4fc8:	e60694e3          	bnez	a3,4e30 <getchar+0x21c>
    4fcc:	fe040413          	addi	s0,s0,-32
    4fd0:	0ff47413          	andi	s0,s0,255
    4fd4:	e5dff06f          	j	4e30 <getchar+0x21c>
    4fd8:	fe070ae3          	beqz	a4,4fcc <getchar+0x3b8>
    4fdc:	e55ff06f          	j	4e30 <getchar+0x21c>
    4fe0:	07d00413          	li	s0,125
    4fe4:	e4dff06f          	j	4e30 <getchar+0x21c>
    4fe8:	02200413          	li	s0,34
    4fec:	e45ff06f          	j	4e30 <getchar+0x21c>
    4ff0:	03c00413          	li	s0,60
    4ff4:	e3dff06f          	j	4e30 <getchar+0x21c>
    4ff8:	03e00413          	li	s0,62
    4ffc:	e35ff06f          	j	4e30 <getchar+0x21c>
    5000:	03f00413          	li	s0,63
    5004:	e2dff06f          	j	4e30 <getchar+0x21c>
    5008:	03a00413          	li	s0,58
    500c:	e25ff06f          	j	4e30 <getchar+0x21c>
    5010:	02b00413          	li	s0,43
    5014:	e1dff06f          	j	4e30 <getchar+0x21c>
    5018:	07b00413          	li	s0,123
    501c:	e15ff06f          	j	4e30 <getchar+0x21c>
    5020:	07c00413          	li	s0,124
    5024:	e0dff06f          	j	4e30 <getchar+0x21c>

00005028 <__udivmoddi4>:
    5028:	fe010113          	addi	sp,sp,-32
    502c:	01312623          	sw	s3,12(sp)
    5030:	01412423          	sw	s4,8(sp)
    5034:	01512223          	sw	s5,4(sp)
    5038:	01612023          	sw	s6,0(sp)
    503c:	00112e23          	sw	ra,28(sp)
    5040:	00812c23          	sw	s0,24(sp)
    5044:	00912a23          	sw	s1,20(sp)
    5048:	01212823          	sw	s2,16(sp)
    504c:	00068a13          	mv	s4,a3
    5050:	00050b13          	mv	s6,a0
    5054:	00060a93          	mv	s5,a2
    5058:	00070993          	mv	s3,a4
    505c:	04059a63          	bnez	a1,50b0 <__udivmoddi4+0x88>
    5060:	18069e63          	bnez	a3,51fc <__udivmoddi4+0x1d4>
    5064:	00070a63          	beqz	a4,5078 <__udivmoddi4+0x50>
    5068:	00060593          	mv	a1,a2
    506c:	688000ef          	jal	ra,56f4 <__umodsi3>
    5070:	00a9a023          	sw	a0,0(s3)
    5074:	0009a223          	sw	zero,4(s3)
    5078:	000a8593          	mv	a1,s5
    507c:	000b0513          	mv	a0,s6
    5080:	62c000ef          	jal	ra,56ac <__hidden___udivsi3>
    5084:	00000593          	li	a1,0
    5088:	01c12083          	lw	ra,28(sp)
    508c:	01812403          	lw	s0,24(sp)
    5090:	01412483          	lw	s1,20(sp)
    5094:	01012903          	lw	s2,16(sp)
    5098:	00c12983          	lw	s3,12(sp)
    509c:	00812a03          	lw	s4,8(sp)
    50a0:	00412a83          	lw	s5,4(sp)
    50a4:	00012b03          	lw	s6,0(sp)
    50a8:	02010113          	addi	sp,sp,32
    50ac:	00008067          	ret
    50b0:	00058493          	mv	s1,a1
    50b4:	00058413          	mv	s0,a1
    50b8:	0e061863          	bnez	a2,51a8 <__udivmoddi4+0x180>
    50bc:	1a068263          	beqz	a3,5260 <__udivmoddi4+0x238>
    50c0:	20050463          	beqz	a0,52c8 <__udivmoddi4+0x2a0>
    50c4:	fff68793          	addi	a5,a3,-1
    50c8:	00d7f733          	and	a4,a5,a3
    50cc:	24070463          	beqz	a4,5314 <__udivmoddi4+0x2ec>
    50d0:	00068513          	mv	a0,a3
    50d4:	458000ef          	jal	ra,552c <__clzsi2>
    50d8:	00050913          	mv	s2,a0
    50dc:	00048513          	mv	a0,s1
    50e0:	44c000ef          	jal	ra,552c <__clzsi2>
    50e4:	40a906b3          	sub	a3,s2,a0
    50e8:	01e00793          	li	a5,30
    50ec:	16d7ec63          	bltu	a5,a3,5264 <__udivmoddi4+0x23c>
    50f0:	00168693          	addi	a3,a3,1
    50f4:	02000513          	li	a0,32
    50f8:	40d50533          	sub	a0,a0,a3
    50fc:	00a49633          	sll	a2,s1,a0
    5100:	00db5733          	srl	a4,s6,a3
    5104:	00d4d7b3          	srl	a5,s1,a3
    5108:	00ab1533          	sll	a0,s6,a0
    510c:	00e66433          	or	s0,a2,a4
    5110:	00000913          	li	s2,0
    5114:	00000713          	li	a4,0
    5118:	01f55613          	srli	a2,a0,0x1f
    511c:	00141813          	slli	a6,s0,0x1
    5120:	00c86833          	or	a6,a6,a2
    5124:	01f45413          	srli	s0,s0,0x1f
    5128:	00179793          	slli	a5,a5,0x1
    512c:	fff84613          	not	a2,a6
    5130:	0087e7b3          	or	a5,a5,s0
    5134:	fff7c313          	not	t1,a5
    5138:	015608b3          	add	a7,a2,s5
    513c:	00c8b8b3          	sltu	a7,a7,a2
    5140:	01430333          	add	t1,t1,s4
    5144:	006888b3          	add	a7,a7,t1
    5148:	41f8d313          	srai	t1,a7,0x1f
    514c:	01537433          	and	s0,t1,s5
    5150:	40880433          	sub	s0,a6,s0
    5154:	01437333          	and	t1,t1,s4
    5158:	01f95613          	srli	a2,s2,0x1f
    515c:	00151593          	slli	a1,a0,0x1
    5160:	00883833          	sltu	a6,a6,s0
    5164:	00191513          	slli	a0,s2,0x1
    5168:	406787b3          	sub	a5,a5,t1
    516c:	fff68693          	addi	a3,a3,-1
    5170:	00e56933          	or	s2,a0,a4
    5174:	410787b3          	sub	a5,a5,a6
    5178:	00c5e533          	or	a0,a1,a2
    517c:	01f8d713          	srli	a4,a7,0x1f
    5180:	f8069ce3          	bnez	a3,5118 <__udivmoddi4+0xf0>
    5184:	00151593          	slli	a1,a0,0x1
    5188:	01f95493          	srli	s1,s2,0x1f
    518c:	00191513          	slli	a0,s2,0x1
    5190:	00e56533          	or	a0,a0,a4
    5194:	00b4e5b3          	or	a1,s1,a1
    5198:	ee0988e3          	beqz	s3,5088 <__udivmoddi4+0x60>
    519c:	0089a023          	sw	s0,0(s3)
    51a0:	00f9a223          	sw	a5,4(s3)
    51a4:	ee5ff06f          	j	5088 <__udivmoddi4+0x60>
    51a8:	06068663          	beqz	a3,5214 <__udivmoddi4+0x1ec>
    51ac:	00068513          	mv	a0,a3
    51b0:	37c000ef          	jal	ra,552c <__clzsi2>
    51b4:	00050913          	mv	s2,a0
    51b8:	00048513          	mv	a0,s1
    51bc:	370000ef          	jal	ra,552c <__clzsi2>
    51c0:	40a906b3          	sub	a3,s2,a0
    51c4:	01f00793          	li	a5,31
    51c8:	08d7ee63          	bltu	a5,a3,5264 <__udivmoddi4+0x23c>
    51cc:	00168693          	addi	a3,a3,1
    51d0:	02000793          	li	a5,32
    51d4:	000b0513          	mv	a0,s6
    51d8:	16f68063          	beq	a3,a5,5338 <__udivmoddi4+0x310>
    51dc:	40d78733          	sub	a4,a5,a3
    51e0:	00db5633          	srl	a2,s6,a3
    51e4:	00e495b3          	sll	a1,s1,a4
    51e8:	00d4d7b3          	srl	a5,s1,a3
    51ec:	00eb1533          	sll	a0,s6,a4
    51f0:	00c5e433          	or	s0,a1,a2
    51f4:	00000913          	li	s2,0
    51f8:	f1dff06f          	j	5114 <__udivmoddi4+0xec>
    51fc:	06070663          	beqz	a4,5268 <__udivmoddi4+0x240>
    5200:	00a9a023          	sw	a0,0(s3)
    5204:	00072223          	sw	zero,4(a4)
    5208:	00000513          	li	a0,0
    520c:	00000593          	li	a1,0
    5210:	e79ff06f          	j	5088 <__udivmoddi4+0x60>
    5214:	fff60793          	addi	a5,a2,-1
    5218:	00c7f733          	and	a4,a5,a2
    521c:	04071c63          	bnez	a4,5274 <__udivmoddi4+0x24c>
    5220:	00098863          	beqz	s3,5230 <__udivmoddi4+0x208>
    5224:	00a7f7b3          	and	a5,a5,a0
    5228:	00f9a023          	sw	a5,0(s3)
    522c:	0009a223          	sw	zero,4(s3)
    5230:	00100793          	li	a5,1
    5234:	0cfa8a63          	beq	s5,a5,5308 <__udivmoddi4+0x2e0>
    5238:	000a8513          	mv	a0,s5
    523c:	378000ef          	jal	ra,55b4 <__ctzsi2>
    5240:	02000793          	li	a5,32
    5244:	40a787b3          	sub	a5,a5,a0
    5248:	00050593          	mv	a1,a0
    524c:	00f497b3          	sll	a5,s1,a5
    5250:	00ab5533          	srl	a0,s6,a0
    5254:	00a7e533          	or	a0,a5,a0
    5258:	00b4d5b3          	srl	a1,s1,a1
    525c:	e2dff06f          	j	5088 <__udivmoddi4+0x60>
    5260:	00100073          	ebreak
    5264:	08099863          	bnez	s3,52f4 <__udivmoddi4+0x2cc>
    5268:	00000513          	li	a0,0
    526c:	00000593          	li	a1,0
    5270:	e19ff06f          	j	5088 <__udivmoddi4+0x60>
    5274:	00060513          	mv	a0,a2
    5278:	00068913          	mv	s2,a3
    527c:	2b0000ef          	jal	ra,552c <__clzsi2>
    5280:	00050493          	mv	s1,a0
    5284:	00040513          	mv	a0,s0
    5288:	2a4000ef          	jal	ra,552c <__clzsi2>
    528c:	40a48733          	sub	a4,s1,a0
    5290:	02170693          	addi	a3,a4,33
    5294:	02000613          	li	a2,32
    5298:	000b0513          	mv	a0,s6
    529c:	00000793          	li	a5,0
    52a0:	e6c68ae3          	beq	a3,a2,5114 <__udivmoddi4+0xec>
    52a4:	01f00793          	li	a5,31
    52a8:	08d7ee63          	bltu	a5,a3,5344 <__udivmoddi4+0x31c>
    52ac:	40d60633          	sub	a2,a2,a3
    52b0:	00db5733          	srl	a4,s6,a3
    52b4:	00c415b3          	sll	a1,s0,a2
    52b8:	00d457b3          	srl	a5,s0,a3
    52bc:	00cb1533          	sll	a0,s6,a2
    52c0:	00e5e433          	or	s0,a1,a4
    52c4:	e51ff06f          	j	5114 <__udivmoddi4+0xec>
    52c8:	00070c63          	beqz	a4,52e0 <__udivmoddi4+0x2b8>
    52cc:	00068593          	mv	a1,a3
    52d0:	00048513          	mv	a0,s1
    52d4:	420000ef          	jal	ra,56f4 <__umodsi3>
    52d8:	00a9a223          	sw	a0,4(s3)
    52dc:	0009a023          	sw	zero,0(s3)
    52e0:	000a0593          	mv	a1,s4
    52e4:	00048513          	mv	a0,s1
    52e8:	3c4000ef          	jal	ra,56ac <__hidden___udivsi3>
    52ec:	00000593          	li	a1,0
    52f0:	d99ff06f          	j	5088 <__udivmoddi4+0x60>
    52f4:	0169a023          	sw	s6,0(s3)
    52f8:	0099a223          	sw	s1,4(s3)
    52fc:	00000513          	li	a0,0
    5300:	00000593          	li	a1,0
    5304:	d85ff06f          	j	5088 <__udivmoddi4+0x60>
    5308:	000b0513          	mv	a0,s6
    530c:	00048593          	mv	a1,s1
    5310:	d79ff06f          	j	5088 <__udivmoddi4+0x60>
    5314:	00098863          	beqz	s3,5324 <__udivmoddi4+0x2fc>
    5318:	00b7f7b3          	and	a5,a5,a1
    531c:	00a9a023          	sw	a0,0(s3)
    5320:	00f9a223          	sw	a5,4(s3)
    5324:	000a0513          	mv	a0,s4
    5328:	28c000ef          	jal	ra,55b4 <__ctzsi2>
    532c:	00a4d533          	srl	a0,s1,a0
    5330:	00000593          	li	a1,0
    5334:	d55ff06f          	j	5088 <__udivmoddi4+0x60>
    5338:	00000793          	li	a5,0
    533c:	00000913          	li	s2,0
    5340:	dd5ff06f          	j	5114 <__udivmoddi4+0xec>
    5344:	04000793          	li	a5,64
    5348:	40d787b3          	sub	a5,a5,a3
    534c:	00170713          	addi	a4,a4,1
    5350:	00fb1933          	sll	s2,s6,a5
    5354:	00eb5533          	srl	a0,s6,a4
    5358:	00f417b3          	sll	a5,s0,a5
    535c:	00a7e533          	or	a0,a5,a0
    5360:	00e45433          	srl	s0,s0,a4
    5364:	000a0793          	mv	a5,s4
    5368:	dadff06f          	j	5114 <__udivmoddi4+0xec>

0000536c <__divdi3>:
    536c:	ff010113          	addi	sp,sp,-16
    5370:	00812423          	sw	s0,8(sp)
    5374:	41f5d793          	srai	a5,a1,0x1f
    5378:	41f6d413          	srai	s0,a3,0x1f
    537c:	00f54733          	xor	a4,a0,a5
    5380:	00864833          	xor	a6,a2,s0
    5384:	40880633          	sub	a2,a6,s0
    5388:	40f70533          	sub	a0,a4,a5
    538c:	00f5c5b3          	xor	a1,a1,a5
    5390:	0086c6b3          	xor	a3,a3,s0
    5394:	00c838b3          	sltu	a7,a6,a2
    5398:	408686b3          	sub	a3,a3,s0
    539c:	00a73833          	sltu	a6,a4,a0
    53a0:	40f585b3          	sub	a1,a1,a5
    53a4:	00000713          	li	a4,0
    53a8:	411686b3          	sub	a3,a3,a7
    53ac:	410585b3          	sub	a1,a1,a6
    53b0:	0087c433          	xor	s0,a5,s0
    53b4:	00112623          	sw	ra,12(sp)
    53b8:	c71ff0ef          	jal	ra,5028 <__udivmoddi4>
    53bc:	00854733          	xor	a4,a0,s0
    53c0:	0085c5b3          	xor	a1,a1,s0
    53c4:	40870533          	sub	a0,a4,s0
    53c8:	00c12083          	lw	ra,12(sp)
    53cc:	408585b3          	sub	a1,a1,s0
    53d0:	00812403          	lw	s0,8(sp)
    53d4:	00a73733          	sltu	a4,a4,a0
    53d8:	40e585b3          	sub	a1,a1,a4
    53dc:	01010113          	addi	sp,sp,16
    53e0:	00008067          	ret

000053e4 <__divmoddi4>:
    53e4:	fe010113          	addi	sp,sp,-32
    53e8:	00112e23          	sw	ra,28(sp)
    53ec:	00812c23          	sw	s0,24(sp)
    53f0:	00912a23          	sw	s1,20(sp)
    53f4:	01212823          	sw	s2,16(sp)
    53f8:	01312623          	sw	s3,12(sp)
    53fc:	01412423          	sw	s4,8(sp)
    5400:	01512223          	sw	s5,4(sp)
    5404:	01612023          	sw	s6,0(sp)
    5408:	00070a13          	mv	s4,a4
    540c:	00060b13          	mv	s6,a2
    5410:	00068a93          	mv	s5,a3
    5414:	00050493          	mv	s1,a0
    5418:	00058413          	mv	s0,a1
    541c:	f51ff0ef          	jal	ra,536c <__divdi3>
    5420:	00050993          	mv	s3,a0
    5424:	00058913          	mv	s2,a1
    5428:	00050613          	mv	a2,a0
    542c:	00058693          	mv	a3,a1
    5430:	000b0513          	mv	a0,s6
    5434:	000a8593          	mv	a1,s5
    5438:	0a8010ef          	jal	ra,64e0 <__muldi3>
    543c:	40a48533          	sub	a0,s1,a0
    5440:	00a4b4b3          	sltu	s1,s1,a0
    5444:	40b40433          	sub	s0,s0,a1
    5448:	40940433          	sub	s0,s0,s1
    544c:	008a2223          	sw	s0,4(s4)
    5450:	01c12083          	lw	ra,28(sp)
    5454:	01812403          	lw	s0,24(sp)
    5458:	00aa2023          	sw	a0,0(s4)
    545c:	01412483          	lw	s1,20(sp)
    5460:	00812a03          	lw	s4,8(sp)
    5464:	00412a83          	lw	s5,4(sp)
    5468:	00012b03          	lw	s6,0(sp)
    546c:	00098513          	mv	a0,s3
    5470:	00090593          	mv	a1,s2
    5474:	00c12983          	lw	s3,12(sp)
    5478:	01012903          	lw	s2,16(sp)
    547c:	02010113          	addi	sp,sp,32
    5480:	00008067          	ret

00005484 <__moddi3>:
    5484:	fe010113          	addi	sp,sp,-32
    5488:	00812c23          	sw	s0,24(sp)
    548c:	41f6d893          	srai	a7,a3,0x1f
    5490:	41f5d413          	srai	s0,a1,0x1f
    5494:	01164733          	xor	a4,a2,a7
    5498:	008547b3          	xor	a5,a0,s0
    549c:	41170633          	sub	a2,a4,a7
    54a0:	40878533          	sub	a0,a5,s0
    54a4:	0116c6b3          	xor	a3,a3,a7
    54a8:	0085c5b3          	xor	a1,a1,s0
    54ac:	00c73833          	sltu	a6,a4,a2
    54b0:	00a7b7b3          	sltu	a5,a5,a0
    54b4:	411686b3          	sub	a3,a3,a7
    54b8:	408585b3          	sub	a1,a1,s0
    54bc:	00810713          	addi	a4,sp,8
    54c0:	40f585b3          	sub	a1,a1,a5
    54c4:	410686b3          	sub	a3,a3,a6
    54c8:	00112e23          	sw	ra,28(sp)
    54cc:	b5dff0ef          	jal	ra,5028 <__udivmoddi4>
    54d0:	00812583          	lw	a1,8(sp)
    54d4:	00c12783          	lw	a5,12(sp)
    54d8:	01c12083          	lw	ra,28(sp)
    54dc:	0085c5b3          	xor	a1,a1,s0
    54e0:	40858533          	sub	a0,a1,s0
    54e4:	0087c7b3          	xor	a5,a5,s0
    54e8:	40878433          	sub	s0,a5,s0
    54ec:	00a5b5b3          	sltu	a1,a1,a0
    54f0:	40b405b3          	sub	a1,s0,a1
    54f4:	01812403          	lw	s0,24(sp)
    54f8:	02010113          	addi	sp,sp,32
    54fc:	00008067          	ret

00005500 <__udivdi3>:
    5500:	00000713          	li	a4,0
    5504:	b25ff06f          	j	5028 <__udivmoddi4>

00005508 <__umoddi3>:
